

Microchip MPLAB XC8 Assembler V2.46 build 20240104201356 
                                                                                               Wed Apr 24 01:38:45 2024

Microchip MPLAB XC8 C Compiler v2.46 (Free license) build 20240104201356 Og1 
     1                           	processor	16F877A
     2                           	pagewidth 120
     3                           	opt	flic
     4                           	psect	idataCOMMON,global,class=CODE,delta=2,noexec
     5                           	psect	idataBANK0,global,class=CODE,delta=2,noexec
     6                           	psect	nvBANK0,global,class=BANK0,space=1,delta=1,noexec
     7                           	psect	cinit,global,class=CODE,merge=1,delta=2
     8                           	psect	bssCOMMON,global,class=COMMON,space=1,delta=1,noexec
     9                           	psect	dataCOMMON,global,class=COMMON,space=1,delta=1,noexec
    10                           	psect	bssBANK0,global,class=BANK0,space=1,delta=1,noexec
    11                           	psect	dataBANK0,global,class=BANK0,space=1,delta=1,noexec
    12                           	psect	inittext,global,class=CODE,delta=2
    13                           	psect	clrtext,global,class=CODE,delta=2
    14                           	psect	cstackCOMMON,global,class=COMMON,space=1,delta=1,noexec
    15                           	psect	cstackBANK0,global,class=BANK0,space=1,delta=1,noexec
    16                           	psect	maintext,global,class=CODE,split=1,delta=2
    17                           	psect	text1,local,class=CODE,merge=1,delta=2
    18                           	psect	text2,local,class=CODE,merge=1,delta=2
    19                           	psect	text3,local,class=CODE,merge=1,inline,delta=2
    20                           	psect	text4,local,class=CODE,merge=1,inline,delta=2
    21                           	psect	text5,local,class=CODE,merge=1,inline,delta=2
    22                           	psect	text6,local,class=CODE,merge=1,inline,delta=2
    23                           	psect	text7,local,class=CODE,merge=1,inline,delta=2
    24                           	psect	text8,local,class=CODE,merge=1,inline,delta=2
    25                           	psect	text9,local,class=CODE,merge=1,inline,delta=2
    26                           	psect	text10,local,class=CODE,merge=1,inline,delta=2
    27                           	psect	text11,local,class=CODE,merge=1,inline,delta=2
    28                           	psect	text12,local,class=CODE,merge=1,inline,delta=2
    29                           	psect	text13,local,class=CODE,merge=1,inline,delta=2
    30                           	psect	text14,local,class=CODE,merge=1,inline,delta=2
    31                           	psect	text15,local,class=CODE,merge=1,inline,delta=2
    32                           	psect	text16,local,class=CODE,merge=1,inline,delta=2
    33                           	psect	text17,local,class=CODE,merge=1,inline,delta=2
    34                           	psect	text18,local,class=CODE,merge=1,inline,delta=2
    35                           	psect	text19,local,class=CODE,merge=1,inline,delta=2
    36                           	psect	text20,local,class=CODE,merge=1,inline,delta=2
    37                           	psect	text21,local,class=CODE,merge=1,delta=2
    38                           	psect	text22,local,class=CODE,merge=1,delta=2
    39                           	psect	text23,local,class=CODE,merge=1,delta=2
    40                           	psect	text24,local,class=CODE,merge=1,delta=2
    41                           	psect	text25,local,class=CODE,merge=1,delta=2
    42                           	psect	text26,local,class=CODE,merge=1,inline,delta=2
    43                           	psect	text27,local,class=CODE,merge=1,inline,delta=2
    44                           	psect	text28,local,class=CODE,merge=1,delta=2
    45                           	psect	text29,local,class=CODE,merge=1,delta=2
    46                           	psect	text30,local,class=CODE,merge=1,delta=2
    47                           	psect	text31,local,class=CODE,merge=1,delta=2
    48                           	psect	text32,local,class=CODE,merge=1,delta=2
    49                           	psect	text33,local,class=CODE,merge=1,delta=2
    50                           	psect	text34,local,class=CODE,merge=1,delta=2
    51                           	psect	intentry,global,class=CODE,delta=2
    52                           	psect	text35,local,class=CODE,merge=1,inline,delta=2
    53                           	psect	text36,local,class=CODE,merge=1,inline,delta=2
    54                           	psect	text37,local,class=CODE,merge=1,inline,delta=2
    55                           	psect	config,global,abs,ovrld,class=CONFIG,space=4,delta=2,noexec
    56                           	dabs	1,0x7E,2
    57     0000                     
    58                           ; Generated 12/10/2023 GMT
    59                           ; 
    60                           ; Copyright © 2023, Microchip Technology Inc. and its subsidiaries ("Microchip")
    61                           ; All rights reserved.
    62                           ; 
    63                           ; This software is developed by Microchip Technology Inc. and its subsidiaries ("Microch
      +                          ip").
    64                           ; 
    65                           ; Redistribution and use in source and binary forms, with or without modification, are
    66                           ; permitted provided that the following conditions are met:
    67                           ; 
    68                           ;     1. Redistributions of source code must retain the above copyright notice, this lis
      +                          t of
    69                           ;        conditions and the following disclaimer.
    70                           ; 
    71                           ;     2. Redistributions in binary form must reproduce the above copyright notice, this 
      +                          list
    72                           ;        of conditions and the following disclaimer in the documentation and/or other
    73                           ;        materials provided with the distribution. Publication is not required when
    74                           ;        this file is used in an embedded application.
    75                           ; 
    76                           ;     3. Microchip's name may not be used to endorse or promote products derived from th
      +                          is
    77                           ;        software without specific prior written permission.
    78                           ; 
    79                           ; THIS SOFTWARE IS PROVIDED BY MICROCHIP "AS IS" AND ANY EXPRESS OR IMPLIED WARRANTIES,
    80                           ; INCLUDING, BUT NOT LIMITED TO, THE IMPLIED WARRANTIES OF MERCHANTABILITY AND FITNESS F
      +                          OR
    81                           ; PURPOSE ARE DISCLAIMED.  IN NO EVENT SHALL MICROCHIP BE LIABLE FOR ANY DIRECT, INDIREC
      +                          T,
    82                           ; INCIDENTAL, SPECIAL, EXEMPLARY, OR CONSEQUENTIAL DAMAGES (INCLUDING BUT NOT LIMITED TO
    83                           ; PROCUREMENT OF SUBSTITUTE GOODS OR SERVICES; LOSS OF USE, DATA OR PROFITS; OR BUSINESS
    84                           ; INTERRUPTION) HOWSOEVER CAUSED AND ON ANY THEORY OF LIABILITY, WHETHER IN CONTRACT, ST
      +                          RICT
    85                           ; LIABILITY, OR TORT (INCLUDING NEGLIGENCE OR OTHERWISE) ARISING IN ANY WAY OUT OF THE U
      +                          SE OF
    86                           ; THIS SOFTWARE, EVEN IF ADVISED OF THE POSSIBILITY OF SUCH DAMAGE.
    87                           ; 
    88                           ; 
    89                           ; Code-generator required, PIC16F877A Definitions
    90                           ; 
    91                           ; SFR Addresses
    92     0000                     	;# 
    93     0001                     	;# 
    94     0002                     	;# 
    95     0003                     	;# 
    96     0004                     	;# 
    97     0005                     	;# 
    98     0006                     	;# 
    99     0007                     	;# 
   100     0008                     	;# 
   101     0009                     	;# 
   102     000A                     	;# 
   103     000B                     	;# 
   104     000C                     	;# 
   105     000D                     	;# 
   106     000E                     	;# 
   107     000E                     	;# 
   108     000F                     	;# 
   109     0010                     	;# 
   110     0011                     	;# 
   111     0012                     	;# 
   112     0013                     	;# 
   113     0014                     	;# 
   114     0015                     	;# 
   115     0015                     	;# 
   116     0016                     	;# 
   117     0017                     	;# 
   118     0018                     	;# 
   119     0019                     	;# 
   120     001A                     	;# 
   121     001B                     	;# 
   122     001B                     	;# 
   123     001C                     	;# 
   124     001D                     	;# 
   125     001E                     	;# 
   126     001F                     	;# 
   127     0081                     	;# 
   128     0085                     	;# 
   129     0086                     	;# 
   130     0087                     	;# 
   131     0088                     	;# 
   132     0089                     	;# 
   133     008C                     	;# 
   134     008D                     	;# 
   135     008E                     	;# 
   136     0091                     	;# 
   137     0092                     	;# 
   138     0093                     	;# 
   139     0094                     	;# 
   140     0098                     	;# 
   141     0099                     	;# 
   142     009C                     	;# 
   143     009D                     	;# 
   144     009E                     	;# 
   145     009F                     	;# 
   146     010C                     	;# 
   147     010D                     	;# 
   148     010E                     	;# 
   149     010F                     	;# 
   150     018C                     	;# 
   151     018D                     	;# 
   152     0000                     	;# 
   153     0001                     	;# 
   154     0002                     	;# 
   155     0003                     	;# 
   156     0004                     	;# 
   157     0005                     	;# 
   158     0006                     	;# 
   159     0007                     	;# 
   160     0008                     	;# 
   161     0009                     	;# 
   162     000A                     	;# 
   163     000B                     	;# 
   164     000C                     	;# 
   165     000D                     	;# 
   166     000E                     	;# 
   167     000E                     	;# 
   168     000F                     	;# 
   169     0010                     	;# 
   170     0011                     	;# 
   171     0012                     	;# 
   172     0013                     	;# 
   173     0014                     	;# 
   174     0015                     	;# 
   175     0015                     	;# 
   176     0016                     	;# 
   177     0017                     	;# 
   178     0018                     	;# 
   179     0019                     	;# 
   180     001A                     	;# 
   181     001B                     	;# 
   182     001B                     	;# 
   183     001C                     	;# 
   184     001D                     	;# 
   185     001E                     	;# 
   186     001F                     	;# 
   187     0081                     	;# 
   188     0085                     	;# 
   189     0086                     	;# 
   190     0087                     	;# 
   191     0088                     	;# 
   192     0089                     	;# 
   193     008C                     	;# 
   194     008D                     	;# 
   195     008E                     	;# 
   196     0091                     	;# 
   197     0092                     	;# 
   198     0093                     	;# 
   199     0094                     	;# 
   200     0098                     	;# 
   201     0099                     	;# 
   202     009C                     	;# 
   203     009D                     	;# 
   204     009E                     	;# 
   205     009F                     	;# 
   206     010C                     	;# 
   207     010D                     	;# 
   208     010E                     	;# 
   209     010F                     	;# 
   210     018C                     	;# 
   211     018D                     	;# 
   212     0000                     	;# 
   213     0001                     	;# 
   214     0002                     	;# 
   215     0003                     	;# 
   216     0004                     	;# 
   217     0005                     	;# 
   218     0006                     	;# 
   219     0007                     	;# 
   220     0008                     	;# 
   221     0009                     	;# 
   222     000A                     	;# 
   223     000B                     	;# 
   224     000C                     	;# 
   225     000D                     	;# 
   226     000E                     	;# 
   227     000E                     	;# 
   228     000F                     	;# 
   229     0010                     	;# 
   230     0011                     	;# 
   231     0012                     	;# 
   232     0013                     	;# 
   233     0014                     	;# 
   234     0015                     	;# 
   235     0015                     	;# 
   236     0016                     	;# 
   237     0017                     	;# 
   238     0018                     	;# 
   239     0019                     	;# 
   240     001A                     	;# 
   241     001B                     	;# 
   242     001B                     	;# 
   243     001C                     	;# 
   244     001D                     	;# 
   245     001E                     	;# 
   246     001F                     	;# 
   247     0081                     	;# 
   248     0085                     	;# 
   249     0086                     	;# 
   250     0087                     	;# 
   251     0088                     	;# 
   252     0089                     	;# 
   253     008C                     	;# 
   254     008D                     	;# 
   255     008E                     	;# 
   256     0091                     	;# 
   257     0092                     	;# 
   258     0093                     	;# 
   259     0094                     	;# 
   260     0098                     	;# 
   261     0099                     	;# 
   262     009C                     	;# 
   263     009D                     	;# 
   264     009E                     	;# 
   265     009F                     	;# 
   266     010C                     	;# 
   267     010D                     	;# 
   268     010E                     	;# 
   269     010F                     	;# 
   270     018C                     	;# 
   271     018D                     	;# 
   272     0000                     	;# 
   273     0001                     	;# 
   274     0002                     	;# 
   275     0003                     	;# 
   276     0004                     	;# 
   277     0005                     	;# 
   278     0006                     	;# 
   279     0007                     	;# 
   280     0008                     	;# 
   281     0009                     	;# 
   282     000A                     	;# 
   283     000B                     	;# 
   284     000C                     	;# 
   285     000D                     	;# 
   286     000E                     	;# 
   287     000E                     	;# 
   288     000F                     	;# 
   289     0010                     	;# 
   290     0011                     	;# 
   291     0012                     	;# 
   292     0013                     	;# 
   293     0014                     	;# 
   294     0015                     	;# 
   295     0015                     	;# 
   296     0016                     	;# 
   297     0017                     	;# 
   298     0018                     	;# 
   299     0019                     	;# 
   300     001A                     	;# 
   301     001B                     	;# 
   302     001B                     	;# 
   303     001C                     	;# 
   304     001D                     	;# 
   305     001E                     	;# 
   306     001F                     	;# 
   307     0081                     	;# 
   308     0085                     	;# 
   309     0086                     	;# 
   310     0087                     	;# 
   311     0088                     	;# 
   312     0089                     	;# 
   313     008C                     	;# 
   314     008D                     	;# 
   315     008E                     	;# 
   316     0091                     	;# 
   317     0092                     	;# 
   318     0093                     	;# 
   319     0094                     	;# 
   320     0098                     	;# 
   321     0099                     	;# 
   322     009C                     	;# 
   323     009D                     	;# 
   324     009E                     	;# 
   325     009F                     	;# 
   326     010C                     	;# 
   327     010D                     	;# 
   328     010E                     	;# 
   329     010F                     	;# 
   330     018C                     	;# 
   331     018D                     	;# 
   332     0000                     	;# 
   333     0001                     	;# 
   334     0002                     	;# 
   335     0003                     	;# 
   336     0004                     	;# 
   337     0005                     	;# 
   338     0006                     	;# 
   339     0007                     	;# 
   340     0008                     	;# 
   341     0009                     	;# 
   342     000A                     	;# 
   343     000B                     	;# 
   344     000C                     	;# 
   345     000D                     	;# 
   346     000E                     	;# 
   347     000E                     	;# 
   348     000F                     	;# 
   349     0010                     	;# 
   350     0011                     	;# 
   351     0012                     	;# 
   352     0013                     	;# 
   353     0014                     	;# 
   354     0015                     	;# 
   355     0015                     	;# 
   356     0016                     	;# 
   357     0017                     	;# 
   358     0018                     	;# 
   359     0019                     	;# 
   360     001A                     	;# 
   361     001B                     	;# 
   362     001B                     	;# 
   363     001C                     	;# 
   364     001D                     	;# 
   365     001E                     	;# 
   366     001F                     	;# 
   367     0081                     	;# 
   368     0085                     	;# 
   369     0086                     	;# 
   370     0087                     	;# 
   371     0088                     	;# 
   372     0089                     	;# 
   373     008C                     	;# 
   374     008D                     	;# 
   375     008E                     	;# 
   376     0091                     	;# 
   377     0092                     	;# 
   378     0093                     	;# 
   379     0094                     	;# 
   380     0098                     	;# 
   381     0099                     	;# 
   382     009C                     	;# 
   383     009D                     	;# 
   384     009E                     	;# 
   385     009F                     	;# 
   386     010C                     	;# 
   387     010D                     	;# 
   388     010E                     	;# 
   389     010F                     	;# 
   390     018C                     	;# 
   391     018D                     	;# 
   392     0000                     	;# 
   393     0001                     	;# 
   394     0002                     	;# 
   395     0003                     	;# 
   396     0004                     	;# 
   397     0005                     	;# 
   398     0006                     	;# 
   399     0007                     	;# 
   400     0008                     	;# 
   401     0009                     	;# 
   402     000A                     	;# 
   403     000B                     	;# 
   404     000C                     	;# 
   405     000D                     	;# 
   406     000E                     	;# 
   407     000E                     	;# 
   408     000F                     	;# 
   409     0010                     	;# 
   410     0011                     	;# 
   411     0012                     	;# 
   412     0013                     	;# 
   413     0014                     	;# 
   414     0015                     	;# 
   415     0015                     	;# 
   416     0016                     	;# 
   417     0017                     	;# 
   418     0018                     	;# 
   419     0019                     	;# 
   420     001A                     	;# 
   421     001B                     	;# 
   422     001B                     	;# 
   423     001C                     	;# 
   424     001D                     	;# 
   425     001E                     	;# 
   426     001F                     	;# 
   427     0081                     	;# 
   428     0085                     	;# 
   429     0086                     	;# 
   430     0087                     	;# 
   431     0088                     	;# 
   432     0089                     	;# 
   433     008C                     	;# 
   434     008D                     	;# 
   435     008E                     	;# 
   436     0091                     	;# 
   437     0092                     	;# 
   438     0093                     	;# 
   439     0094                     	;# 
   440     0098                     	;# 
   441     0099                     	;# 
   442     009C                     	;# 
   443     009D                     	;# 
   444     009E                     	;# 
   445     009F                     	;# 
   446     010C                     	;# 
   447     010D                     	;# 
   448     010E                     	;# 
   449     010F                     	;# 
   450     018C                     	;# 
   451     018D                     	;# 
   452     0000                     	;# 
   453     0001                     	;# 
   454     0002                     	;# 
   455     0003                     	;# 
   456     0004                     	;# 
   457     0005                     	;# 
   458     0006                     	;# 
   459     0007                     	;# 
   460     0008                     	;# 
   461     0009                     	;# 
   462     000A                     	;# 
   463     000B                     	;# 
   464     000C                     	;# 
   465     000D                     	;# 
   466     000E                     	;# 
   467     000E                     	;# 
   468     000F                     	;# 
   469     0010                     	;# 
   470     0011                     	;# 
   471     0012                     	;# 
   472     0013                     	;# 
   473     0014                     	;# 
   474     0015                     	;# 
   475     0015                     	;# 
   476     0016                     	;# 
   477     0017                     	;# 
   478     0018                     	;# 
   479     0019                     	;# 
   480     001A                     	;# 
   481     001B                     	;# 
   482     001B                     	;# 
   483     001C                     	;# 
   484     001D                     	;# 
   485     001E                     	;# 
   486     001F                     	;# 
   487     0081                     	;# 
   488     0085                     	;# 
   489     0086                     	;# 
   490     0087                     	;# 
   491     0088                     	;# 
   492     0089                     	;# 
   493     008C                     	;# 
   494     008D                     	;# 
   495     008E                     	;# 
   496     0091                     	;# 
   497     0092                     	;# 
   498     0093                     	;# 
   499     0094                     	;# 
   500     0098                     	;# 
   501     0099                     	;# 
   502     009C                     	;# 
   503     009D                     	;# 
   504     009E                     	;# 
   505     009F                     	;# 
   506     010C                     	;# 
   507     010D                     	;# 
   508     010E                     	;# 
   509     010F                     	;# 
   510     018C                     	;# 
   511     018D                     	;# 
   512                           
   513                           	psect	idataCOMMON
   514     0410                     __pidataCOMMON:
   515                           
   516                           ;initializer for _pulse_timer_handle
   517     0410  34FF               	retlw	255
   518                           
   519                           ;initializer for _timer_handle
   520     0411  34FF               	retlw	255
   521                           
   522                           	psect	idataBANK0
   523     04FB                     __pidataBANK0:
   524                           
   525                           ;initializer for _load_count
   526     04FB  340B               	retlw	11
   527     04FC  34FE               	retlw	254
   528                           
   529                           ;initializer for _k_array
   530     04FD  3400               	retlw	0
   531     04FE  3400               	retlw	0
   532     04FF  347F               	retlw	127
   533     0500  3408               	retlw	8
   534     0501  3414               	retlw	20
   535     0502  3422               	retlw	34
   536     0503  3441               	retlw	65
   537     0504  3400               	retlw	0
   538     0505  3400               	retlw	0
   539     0506  3400               	retlw	0
   540     0507  347F               	retlw	127
   541     0508  3408               	retlw	8
   542     0509  3414               	retlw	20
   543     050A  3422               	retlw	34
   544     050B  3441               	retlw	65
   545     050C  3400               	retlw	0
   546                           
   547                           	psect	nvBANK0
   548     0063                     __pnvBANK0:
   549     0063                     _green_array_1_next:
   550     0063                     	ds	1
   551     0064                     _red_array_1_next:
   552     0064                     	ds	1
   553     0001                     _TMR0	set	1
   554     0010                     _T1CONbits	set	16
   555     000C                     _PIR1bits	set	12
   556     000E                     _TMR1L	set	14
   557     000F                     _TMR1H	set	15
   558     0005                     _PORTAbits	set	5
   559     0006                     _PORTB	set	6
   560     0009                     _PORTE	set	9
   561     0008                     _PORTD	set	8
   562     0007                     _PORTC	set	7
   563     000B                     _INTCONbits	set	11
   564     0005                     _PORTA	set	5
   565     0006                     _PORTBbits	set	6
   566     0081                     _OPTION_REG	set	129
   567     0081                     _OPTION_REGbits	set	129
   568     008C                     _PIE1bits	set	140
   569     0089                     _TRISEbits	set	137
   570     0088                     _TRISDbits	set	136
   571     0087                     _TRISCbits	set	135
   572     0086                     _TRISBbits	set	134
   573     009F                     _ADCON1	set	159
   574     0085                     _TRISAbits	set	133
   575                           
   576                           	psect	cinit
   577     07D8                     start_initialization:	
   578                           ; #config settings
   579                           
   580     07D8                     __initialization:
   581                           
   582                           ; Initialize objects allocated to BANK0
   583     07D8  1383               	bcf	3,7	;select IRP bank0
   584     07D9  3063               	movlw	low (__pdataBANK0+18)
   585     07DA  00FD               	movwf	btemp+-1
   586     07DB  3004               	movlw	high __pidataBANK0
   587     07DC  00FE               	movwf	btemp
   588     07DD  30FB               	movlw	low __pidataBANK0
   589     07DE  00FF               	movwf	btemp+1
   590     07DF  3051               	movlw	low __pdataBANK0
   591     07E0  0084               	movwf	4
   592     07E1  120A  118A  2524  120A  118A  	fcall	init_ram0
   593                           
   594                           ; Initialize objects allocated to COMMON
   595     07E6  120A  118A  2410  120A  118A  	fcall	__pidataCOMMON	;fetch initializer
   596     07EB  00FA               	movwf	__pdataCOMMON& (0+127)
   597     07EC  120A  118A  2411  120A  118A  	fcall	__pidataCOMMON+1	;fetch initializer
   598     07F1  00FB               	movwf	(__pdataCOMMON+1)& (0+127)
   599                           
   600                           ; Clear objects allocated to BANK0
   601     07F2  3020               	movlw	low __pbssBANK0
   602     07F3  0084               	movwf	4
   603     07F4  3051               	movlw	low (__pbssBANK0+49)
   604     07F5  120A  118A  24AE  120A  118A  	fcall	clear_ram0
   605                           
   606                           ; Clear objects allocated to COMMON
   607     07FA  01F8               	clrf	__pbssCOMMON& (0+127)
   608     07FB  01F9               	clrf	(__pbssCOMMON+1)& (0+127)
   609     07FC                     end_of_initialization:	
   610                           ;End of C runtime variable initialization code
   611                           
   612     07FC                     __end_of__initialization:
   613     07FC  0183               	clrf	3
   614     07FD  120A  118A  2DF6   	ljmp	_main	;jump to C main() function
   615                           
   616                           	psect	bssCOMMON
   617     0078                     __pbssCOMMON:
   618     0078                     _last_timer_hndl:
   619     0078                     	ds	1
   620     0079                     _horizontal_index:
   621     0079                     	ds	1
   622                           
   623                           	psect	dataCOMMON
   624     007A                     __pdataCOMMON:
   625     007A                     _pulse_timer_handle:
   626     007A                     	ds	1
   627     007B                     _timer_handle:
   628     007B                     	ds	1
   629                           
   630                           	psect	bssBANK0
   631     0020                     __pbssBANK0:
   632     0020                     _timer_cnt_array:
   633     0020                     	ds	20
   634     0034                     _global_time:
   635     0034                     	ds	2
   636     0036                     _timer_increment_flg:
   637     0036                     	ds	1
   638     0037                     _btn_B_flag:
   639     0037                     	ds	1
   640     0038                     _btn_A_flag:
   641     0038                     	ds	1
   642     0039                     _read_value:
   643     0039                     	ds	1
   644     003A                     _reset_pulse_flag:
   645     003A                     	ds	1
   646     003B                     _frame_complete_flag:
   647     003B                     	ds	1
   648     003C                     _green_index:
   649     003C                     	ds	1
   650     003D                     _red_index:
   651     003D                     	ds	1
   652     003E                     _green_array_1:
   653     003E                     	ds	1
   654     003F                     _red_array_1:
   655     003F                     	ds	1
   656     0040                     _mltplxr_state:
   657     0040                     	ds	1
   658     0041                     _blank_array:
   659     0041                     	ds	16
   660                           
   661                           	psect	dataBANK0
   662     0051                     __pdataBANK0:
   663     0051                     _load_count:
   664     0051                     	ds	2
   665     0053                     _k_array:
   666     0053                     	ds	16
   667                           
   668                           	psect	inittext
   669     0520                     init_fetch0:	
   670                           ;	Called with low address in FSR and high address in W
   671                           
   672     0520  087E               	movf	btemp,w
   673     0521  008A               	movwf	10
   674     0522  087F               	movf	btemp+1,w
   675     0523  0082               	movwf	2
   676     0524                     init_ram0:	
   677                           ;Called with:
   678                           ;	high address of idata address in btemp 
   679                           ;	low address of idata address in btemp+1 
   680                           ;	low address of data in FSR
   681                           ;	high address + 1 of data in btemp-1
   682                           
   683     0524  120A  118A  2520  120A  118A  	fcall	init_fetch0
   684     0529  0080               	movwf	0
   685     052A  0A84               	incf	4,f
   686     052B  0804               	movf	4,w
   687     052C  067D               	xorwf	btemp+-1,w
   688     052D  1903               	btfsc	3,2
   689     052E  3400               	retlw	0
   690     052F  0AFF               	incf	btemp+1,f
   691     0530  1903               	btfsc	3,2
   692     0531  0AFE               	incf	btemp,f
   693     0532  2D24               	goto	init_ram0
   694                           
   695                           	psect	clrtext
   696     04AE                     clear_ram0:	
   697                           ;	Called with FSR containing the base address, and
   698                           ;	W with the last address+1
   699                           
   700     04AE  0064               	clrwdt	;clear the watchdog before getting into this loop
   701     04AF                     clrloop0:
   702     04AF  0180               	clrf	0	;clear RAM location pointed to by FSR
   703     04B0  0A84               	incf	4,f	;increment pointer
   704     04B1  0604               	xorwf	4,w	;XOR with final address
   705     04B2  1903               	btfsc	3,2	;have we reached the end yet?
   706     04B3  3400               	retlw	0	;all done for this memory range, return
   707     04B4  0604               	xorwf	4,w	;XOR again to restore value
   708     04B5  2CAF               	goto	clrloop0	;do the next byte
   709                           
   710                           	psect	cstackCOMMON
   711     0071                     __pcstackCOMMON:
   712     0071                     ?_set_PORTD_pins:
   713     0071                     ?_set_PORTE_pins:	
   714                           ; 1 bytes @ 0x0
   715                           
   716     0071                     ?_clear_PORTE_pins:	
   717                           ; 1 bytes @ 0x0
   718                           
   719     0071                     ?_set_PORTA_pins:	
   720                           ; 1 bytes @ 0x0
   721                           
   722     0071                     ?_clear_PORTA_pins:	
   723                           ; 1 bytes @ 0x0
   724                           
   725     0071                     ?_set_PORTC_pins:	
   726                           ; 1 bytes @ 0x0
   727                           
   728     0071                     ?_clear_PORTC_pins:	
   729                           ; 1 bytes @ 0x0
   730                           
   731     0071                     ?_ms_timer_init:	
   732                           ; 1 bytes @ 0x0
   733                           
   734     0071                     ?_ms_timer_reset:	
   735                           ; 1 bytes @ 0x0
   736                           
   737     0071                     ?_Timer0_isr:	
   738                           ; 1 bytes @ 0x0
   739                           
   740     0071                     ??_Timer0_isr:	
   741                           ; 1 bytes @ 0x0
   742                           
   743     0071                     ?_Timer1_isr:	
   744                           ; 1 bytes @ 0x0
   745                           
   746     0071                     ??_Timer1_isr:	
   747                           ; 1 bytes @ 0x0
   748                           
   749     0071                     ?_Timer1_config:	
   750                           ; 1 bytes @ 0x0
   751                           
   752     0071                     ?_ms_timer_task:	
   753                           ; 1 bytes @ 0x0
   754                           
   755     0071                     ?_button_A:	
   756                           ; 1 bytes @ 0x0
   757                           
   758     0071                     ?_button_B:	
   759                           ; 1 bytes @ 0x0
   760                           
   761     0071                     ?_display_multiplexer_set_red_array:	
   762                           ; 1 bytes @ 0x0
   763                           
   764     0071                     ?_display_multiplexer_set_green_array:	
   765                           ; 1 bytes @ 0x0
   766                           
   767     0071                     ?_set_row_pattern:	
   768                           ; 1 bytes @ 0x0
   769                           
   770     0071                     ?_set_reset_matrix:	
   771                           ; 1 bytes @ 0x0
   772                           
   773     0071                     ?_reset_reset_matrix:	
   774                           ; 1 bytes @ 0x0
   775                           
   776     0071                     ?_set_clk_1:	
   777                           ; 1 bytes @ 0x0
   778                           
   779     0071                     ?_reset_clk_1:	
   780                           ; 1 bytes @ 0x0
   781                           
   782     0071                     ?_set_clk_2:	
   783                           ; 1 bytes @ 0x0
   784                           
   785     0071                     ?_reset_clk_2:	
   786                           ; 1 bytes @ 0x0
   787                           
   788     0071                     ?_set_clk_3:	
   789                           ; 1 bytes @ 0x0
   790                           
   791     0071                     ?_reset_clk_3:	
   792                           ; 1 bytes @ 0x0
   793                           
   794     0071                     ?_set_clk_4:	
   795                           ; 1 bytes @ 0x0
   796                           
   797     0071                     ?_reset_clk_4:	
   798                           ; 1 bytes @ 0x0
   799                           
   800     0071                     ?_display_multiplexer_task:	
   801                           ; 1 bytes @ 0x0
   802                           
   803     0071                     ?_PORTA_config:	
   804                           ; 1 bytes @ 0x0
   805                           
   806     0071                     ?_PORTB_config:	
   807                           ; 1 bytes @ 0x0
   808                           
   809     0071                     ?_PORTC_config:	
   810                           ; 1 bytes @ 0x0
   811                           
   812     0071                     ?_PORTD_config:	
   813                           ; 1 bytes @ 0x0
   814                           
   815     0071                     ?_PORTE_config:	
   816                           ; 1 bytes @ 0x0
   817                           
   818     0071                     ?_PORTB_int_isr:	
   819                           ; 1 bytes @ 0x0
   820                           
   821     0071                     ??_PORTB_int_isr:	
   822                           ; 1 bytes @ 0x0
   823                           
   824     0071                     ?_isr:	
   825                           ; 1 bytes @ 0x0
   826                           
   827     0071                     ??_isr:	
   828                           ; 1 bytes @ 0x0
   829                           
   830     0071                     ?_main:	
   831                           ; 1 bytes @ 0x0
   832                           
   833                           
   834                           ; 1 bytes @ 0x0
   835     0071                     	ds	2
   836     0073                     ??_set_PORTD_pins:
   837     0073                     ??_set_PORTE_pins:	
   838                           ; 1 bytes @ 0x2
   839                           
   840     0073                     ??_clear_PORTE_pins:	
   841                           ; 1 bytes @ 0x2
   842                           
   843     0073                     ??_set_PORTA_pins:	
   844                           ; 1 bytes @ 0x2
   845                           
   846     0073                     ??_clear_PORTA_pins:	
   847                           ; 1 bytes @ 0x2
   848                           
   849     0073                     ??_set_PORTC_pins:	
   850                           ; 1 bytes @ 0x2
   851                           
   852     0073                     ??_clear_PORTC_pins:	
   853                           ; 1 bytes @ 0x2
   854                           
   855     0073                     ??_ms_timer_init:	
   856                           ; 1 bytes @ 0x2
   857                           
   858     0073                     ??_ms_timer_reset:	
   859                           ; 1 bytes @ 0x2
   860                           
   861     0073                     ??_Timer1_config:	
   862                           ; 1 bytes @ 0x2
   863                           
   864     0073                     ??_ms_timer_task:	
   865                           ; 1 bytes @ 0x2
   866                           
   867     0073                     ??_button_A:	
   868                           ; 1 bytes @ 0x2
   869                           
   870     0073                     ??_button_B:	
   871                           ; 1 bytes @ 0x2
   872                           
   873     0073                     ??_display_multiplexer_set_red_array:	
   874                           ; 1 bytes @ 0x2
   875                           
   876     0073                     ??_display_multiplexer_set_green_array:	
   877                           ; 1 bytes @ 0x2
   878                           
   879     0073                     ??_PORTA_config:	
   880                           ; 1 bytes @ 0x2
   881                           
   882     0073                     ??_PORTB_config:	
   883                           ; 1 bytes @ 0x2
   884                           
   885     0073                     ??_PORTC_config:	
   886                           ; 1 bytes @ 0x2
   887                           
   888     0073                     ??_PORTD_config:	
   889                           ; 1 bytes @ 0x2
   890                           
   891     0073                     ??_PORTE_config:	
   892                           ; 1 bytes @ 0x2
   893                           
   894     0073                     ?_ms_timer_get:	
   895                           ; 1 bytes @ 0x2
   896                           
   897     0073                     display_multiplexer_set_red_array@data_buffer:	
   898                           ; 4 bytes @ 0x2
   899                           
   900     0073                     display_multiplexer_set_green_array@data_buffer:	
   901                           ; 1 bytes @ 0x2
   902                           
   903     0073                     set_PORTA_pins@bit_field:	
   904                           ; 1 bytes @ 0x2
   905                           
   906     0073                     clear_PORTA_pins@bit_field:	
   907                           ; 1 bytes @ 0x2
   908                           
   909     0073                     set_PORTC_pins@bit_field:	
   910                           ; 1 bytes @ 0x2
   911                           
   912     0073                     clear_PORTC_pins@bit_field:	
   913                           ; 1 bytes @ 0x2
   914                           
   915     0073                     set_PORTD_pins@bit_field:	
   916                           ; 1 bytes @ 0x2
   917                           
   918     0073                     set_PORTE_pins@bit_field:	
   919                           ; 1 bytes @ 0x2
   920                           
   921     0073                     clear_PORTE_pins@bit_field:	
   922                           ; 1 bytes @ 0x2
   923                           
   924                           
   925                           ; 1 bytes @ 0x2
   926     0073                     	ds	1
   927     0074                     ??_set_row_pattern:
   928     0074                     ??_set_reset_matrix:	
   929                           ; 1 bytes @ 0x3
   930                           
   931     0074                     ??_reset_reset_matrix:	
   932                           ; 1 bytes @ 0x3
   933                           
   934     0074                     ??_set_clk_1:	
   935                           ; 1 bytes @ 0x3
   936                           
   937     0074                     ??_reset_clk_1:	
   938                           ; 1 bytes @ 0x3
   939                           
   940     0074                     ??_set_clk_2:	
   941                           ; 1 bytes @ 0x3
   942                           
   943     0074                     ??_reset_clk_2:	
   944                           ; 1 bytes @ 0x3
   945                           
   946     0074                     ??_set_clk_3:	
   947                           ; 1 bytes @ 0x3
   948                           
   949     0074                     ??_reset_clk_3:	
   950                           ; 1 bytes @ 0x3
   951                           
   952     0074                     ??_set_clk_4:	
   953                           ; 1 bytes @ 0x3
   954                           
   955     0074                     ??_reset_clk_4:	
   956                           ; 1 bytes @ 0x3
   957                           
   958     0074                     set_row_pattern@pattern:	
   959                           ; 1 bytes @ 0x3
   960                           
   961     0074                     ms_timer_task@i:	
   962                           ; 1 bytes @ 0x3
   963                           
   964                           
   965                           ; 2 bytes @ 0x3
   966     0074                     	ds	1
   967     0075                     ms_timer_init@ret_val:
   968     0075                     ms_timer_reset@timer_handle:	
   969                           ; 1 bytes @ 0x4
   970                           
   971                           
   972                           ; 1 bytes @ 0x4
   973     0075                     	ds	2
   974     0077                     ??_ms_timer_get:
   975                           
   976                           ; 1 bytes @ 0x6
   977     0077                     	ds	1
   978     0078                     ??_main:
   979                           
   980                           	psect	cstackBANK0
   981     0065                     __pcstackBANK0:	
   982                           ; 1 bytes @ 0x7
   983                           
   984     0065                     ms_timer_get@timer_handle:
   985                           
   986                           ; 1 bytes @ 0x0
   987     0065                     	ds	1
   988     0066                     ??_display_multiplexer_task:
   989                           
   990                           ; 1 bytes @ 0x1
   991     0066                     	ds	1
   992                           
   993                           	psect	maintext
   994     05F6                     __pmaintext:	
   995 ;;
   996 ;;Main: autosize = 0, tempsize = 0, incstack = 0, save=0
   997 ;;
   998 ;; *************** function _main *****************
   999 ;; Defined at:
  1000 ;;		line 66 in file "main.c"
  1001 ;; Parameters:    Size  Location     Type
  1002 ;;		None
  1003 ;; Auto vars:     Size  Location     Type
  1004 ;;		None
  1005 ;; Return value:  Size  Location     Type
  1006 ;;                  1    wreg      void 
  1007 ;; Registers used:
  1008 ;;		wreg, fsr0l, fsr0h, status,2, status,0, btemp+1, pclath, cstack
  1009 ;; Tracked objects:
  1010 ;;		On entry : B00/0
  1011 ;;		On exit  : 0/0
  1012 ;;		Unchanged: 0/0
  1013 ;; Data sizes:     COMMON   BANK0   BANK1   BANK3   BANK2
  1014 ;;      Params:         0       0       0       0       0
  1015 ;;      Locals:         0       0       0       0       0
  1016 ;;      Temps:          0       0       0       0       0
  1017 ;;      Totals:         0       0       0       0       0
  1018 ;;Total ram usage:        0 bytes
  1019 ;; Hardware stack levels required when called: 5
  1020 ;; This function calls:
  1021 ;;		_PORTA_config
  1022 ;;		_PORTB_config
  1023 ;;		_PORTC_config
  1024 ;;		_PORTD_config
  1025 ;;		_PORTE_config
  1026 ;;		_Timer1_config
  1027 ;;		_button_A
  1028 ;;		_button_B
  1029 ;;		_display_multiplexer_set_green_array
  1030 ;;		_display_multiplexer_set_red_array
  1031 ;;		_display_multiplexer_task
  1032 ;;		_ms_timer_task
  1033 ;;		_reset_clk_1
  1034 ;;		_reset_clk_2
  1035 ;;		_reset_clk_3
  1036 ;;		_reset_clk_4
  1037 ;; This function is called by:
  1038 ;;		Startup code after reset
  1039 ;; This function uses a non-reentrant model
  1040 ;;
  1041                           
  1042     05F6                     _main:	
  1043                           ;psect for function _main
  1044                           
  1045     05F6                     l1778:	
  1046                           ;incstack = 0
  1047                           ; Regs used in _main: [wreg-fsr0h+status,2+status,0+btemp+1+pclath+cstack]
  1048                           
  1049                           
  1050                           ;main.c: 69:             btn_B_flag =1;
  1051     05F6  120A  118A  24D1  120A  118A  	fcall	_PORTA_config
  1052     05FB                     l1780:
  1053                           
  1054                           ;main.c: 70:         }
  1055     05FB  120A  118A  24DF  120A  118A  	fcall	_PORTB_config
  1056     0600                     l1782:
  1057                           
  1058                           ;main.c: 71: 
  1059     0600  120A  118A  24BF  120A  118A  	fcall	_PORTC_config
  1060     0605                     l1784:
  1061                           
  1062                           ;main.c: 72: 
  1063     0605  120A  118A  24ED  120A  118A  	fcall	_PORTD_config
  1064     060A                     l1786:
  1065                           
  1066                           ;main.c: 73: 
  1067     060A  120A  118A  24C8  120A  118A  	fcall	_PORTE_config
  1068     060F                     l1788:
  1069                           
  1070                           ;main.c: 75: }
  1071     060F  120A  118A  2430  120A  118A  	fcall	_reset_clk_1
  1072     0614                     l1790:
  1073     0614  120A  118A  2437  120A  118A  	fcall	_reset_clk_2
  1074     0619                     l1792:
  1075     0619  120A  118A  243E  120A  118A  	fcall	_reset_clk_3
  1076     061E                     l1794:
  1077     061E  120A  118A  2445  120A  118A  	fcall	_reset_clk_4
  1078     0623  120A  118A  250D  120A  118A  	fcall	_Timer1_config
  1079     0628  3053               	movlw	(low (_k_array| 0))& (0+255)
  1080     0629  120A  118A  241D  120A  118A  	fcall	_display_multiplexer_set_red_array
  1081     062E  3041               	movlw	(low (_blank_array| 0))& (0+255)
  1082     062F  120A  118A  2417  120A  118A  	fcall	_display_multiplexer_set_green_array
  1083     0634                     l1796:
  1084     0634  120A  118A  25B7  120A  118A  	fcall	_ms_timer_task
  1085     0639                     l1798:
  1086     0639  120A  118A  265E  120A  118A  	fcall	_display_multiplexer_task
  1087     063E                     l1800:
  1088     063E  120A  118A  2412  120A  118A  	fcall	_button_A
  1089     0643  3A01               	xorlw	1
  1090     0644  1D03               	skipz
  1091     0645  2E47               	goto	u751
  1092     0646  2E48               	goto	u750
  1093     0647                     u751:
  1094     0647  2E4C               	goto	l1804
  1095     0648                     u750:
  1096     0648                     l1802:
  1097     0648  1283               	bcf	3,5	;RP0=0, select bank0
  1098     0649  1303               	bcf	3,6	;RP1=0, select bank0
  1099     064A  01B8               	clrf	_btn_A_flag
  1100     064B  0AB8               	incf	_btn_A_flag,f
  1101     064C                     l1804:
  1102     064C  120A  118A  2429  120A  118A  	fcall	_button_B
  1103     0651  3A01               	xorlw	1
  1104     0652  1D03               	skipz
  1105     0653  2E55               	goto	u761
  1106     0654  2E56               	goto	u760
  1107     0655                     u761:
  1108     0655  2E34               	goto	l1796
  1109     0656                     u760:
  1110     0656                     l1806:
  1111     0656  1283               	bcf	3,5	;RP0=0, select bank0
  1112     0657  1303               	bcf	3,6	;RP1=0, select bank0
  1113     0658  01B7               	clrf	_btn_B_flag
  1114     0659  0AB7               	incf	_btn_B_flag,f
  1115     065A  2E34               	goto	l1796
  1116     065B  120A  118A  280C   	ljmp	start
  1117     065E                     __end_of_main:
  1118                           
  1119                           	psect	text1
  1120     05B7                     __ptext1:	
  1121 ;; *************** function _ms_timer_task *****************
  1122 ;; Defined at:
  1123 ;;		line 128 in file "System/Timer1_driver.c"
  1124 ;; Parameters:    Size  Location     Type
  1125 ;;		None
  1126 ;; Auto vars:     Size  Location     Type
  1127 ;;  i               2    3[COMMON] int 
  1128 ;; Return value:  Size  Location     Type
  1129 ;;                  1    wreg      void 
  1130 ;; Registers used:
  1131 ;;		wreg, fsr0l, fsr0h, status,2, status,0
  1132 ;; Tracked objects:
  1133 ;;		On entry : 0/0
  1134 ;;		On exit  : 0/0
  1135 ;;		Unchanged: 0/0
  1136 ;; Data sizes:     COMMON   BANK0   BANK1   BANK3   BANK2
  1137 ;;      Params:         0       0       0       0       0
  1138 ;;      Locals:         2       0       0       0       0
  1139 ;;      Temps:          1       0       0       0       0
  1140 ;;      Totals:         3       0       0       0       0
  1141 ;;Total ram usage:        3 bytes
  1142 ;; Hardware stack levels used: 1
  1143 ;; Hardware stack levels required when called: 2
  1144 ;; This function calls:
  1145 ;;		Nothing
  1146 ;; This function is called by:
  1147 ;;		_main
  1148 ;; This function uses a non-reentrant model
  1149 ;;
  1150                           
  1151     05B7                     _ms_timer_task:	
  1152                           ;psect for function _ms_timer_task
  1153                           
  1154     05B7                     l1596:	
  1155                           ;incstack = 0
  1156                           ; Regs used in _ms_timer_task: [wreg-fsr0h+status,2+status,0]
  1157                           
  1158     05B7                     l1598:
  1159                           
  1160                           ;System/Timer1_driver.c: 131:     if (timer_increment_flg > 0) {
  1161     05B7  1283               	bcf	3,5	;RP0=0, select bank0
  1162     05B8  1303               	bcf	3,6	;RP1=0, select bank0
  1163     05B9  0836               	movf	_timer_increment_flg,w	;volatile
  1164     05BA  1903               	btfsc	3,2
  1165     05BB  2DBD               	goto	u521
  1166     05BC  2DBE               	goto	u520
  1167     05BD                     u521:
  1168     05BD  2DF5               	goto	l360
  1169     05BE                     u520:
  1170     05BE                     l1600:
  1171                           
  1172                           ;System/Timer1_driver.c: 132:         timer_increment_flg = 0;
  1173     05BE  01B6               	clrf	_timer_increment_flg	;volatile
  1174                           
  1175                           ;System/Timer1_driver.c: 133:         for (i = 0 ; i < last_timer_hndl ; i++) {
  1176     05BF  01F4               	clrf	ms_timer_task@i
  1177     05C0  01F5               	clrf	ms_timer_task@i+1
  1178     05C1  2DE8               	goto	l1606
  1179     05C2                     l1602:
  1180                           
  1181                           ;System/Timer1_driver.c: 134:             timer_cnt_array[i]++;
  1182     05C2  0874               	movf	ms_timer_task@i,w
  1183     05C3  00F3               	movwf	??_ms_timer_task
  1184     05C4  3001               	movlw	1
  1185     05C5                     u535:
  1186     05C5  1003               	clrc
  1187     05C6  0DF3               	rlf	??_ms_timer_task,f
  1188     05C7  3EFF               	addlw	-1
  1189     05C8  1D03               	skipz
  1190     05C9  2DC5               	goto	u535
  1191     05CA  1003               	clrc
  1192     05CB  0D73               	rlf	??_ms_timer_task,w
  1193     05CC  3E20               	addlw	(low (_timer_cnt_array| 0))& (0+255)
  1194     05CD  0084               	movwf	4
  1195     05CE  3001               	movlw	1
  1196     05CF  1383               	bcf	3,7	;select IRP bank0
  1197     05D0  0780               	addwf	0,f
  1198     05D1  0A84               	incf	4,f
  1199     05D2  3000               	movlw	0
  1200     05D3  1803               	skipnc
  1201     05D4  3E01               	addlw	1
  1202     05D5  1D03               	skipz
  1203     05D6  0780               	addwf	0,f
  1204     05D7  0A84               	incf	4,f
  1205     05D8  3000               	movlw	0
  1206     05D9  1803               	skipnc
  1207     05DA  3E01               	addlw	1
  1208     05DB  1D03               	skipz
  1209     05DC  0780               	addwf	0,f
  1210     05DD  0A84               	incf	4,f
  1211     05DE  3000               	movlw	0
  1212     05DF  1803               	skipnc
  1213     05E0  3E01               	addlw	1
  1214     05E1  0780               	addwf	0,f
  1215     05E2                     l1604:
  1216                           
  1217                           ;System/Timer1_driver.c: 135:         }
  1218     05E2  3001               	movlw	1
  1219     05E3  07F4               	addwf	ms_timer_task@i,f
  1220     05E4  1803               	skipnc
  1221     05E5  0AF5               	incf	ms_timer_task@i+1,f
  1222     05E6  3000               	movlw	0
  1223     05E7  07F5               	addwf	ms_timer_task@i+1,f
  1224     05E8                     l1606:
  1225     05E8  0875               	movf	ms_timer_task@i+1,w
  1226     05E9  3A80               	xorlw	128
  1227     05EA  00F3               	movwf	??_ms_timer_task
  1228     05EB  3080               	movlw	128
  1229     05EC  0273               	subwf	??_ms_timer_task,w
  1230     05ED  1D03               	skipz
  1231     05EE  2DF1               	goto	u545
  1232     05EF  0878               	movf	_last_timer_hndl,w
  1233     05F0  0274               	subwf	ms_timer_task@i,w
  1234     05F1                     u545:
  1235     05F1  1C03               	skipc
  1236     05F2  2DF4               	goto	u541
  1237     05F3  2DF5               	goto	u540
  1238     05F4                     u541:
  1239     05F4  2DC2               	goto	l1602
  1240     05F5                     u540:
  1241     05F5                     l360:
  1242     05F5  0008               	return
  1243     05F6                     __end_of_ms_timer_task:
  1244                           
  1245                           	psect	text2
  1246     065E                     __ptext2:	
  1247 ;; *************** function _display_multiplexer_task *****************
  1248 ;; Defined at:
  1249 ;;		line 189 in file "Drivers/display_multiplexer.c"
  1250 ;; Parameters:    Size  Location     Type
  1251 ;;		None
  1252 ;; Auto vars:     Size  Location     Type
  1253 ;;		None
  1254 ;; Return value:  Size  Location     Type
  1255 ;;                  1    wreg      void 
  1256 ;; Registers used:
  1257 ;;		wreg, fsr0l, fsr0h, status,2, status,0, btemp+1, pclath, cstack
  1258 ;; Tracked objects:
  1259 ;;		On entry : 0/0
  1260 ;;		On exit  : 0/0
  1261 ;;		Unchanged: 0/0
  1262 ;; Data sizes:     COMMON   BANK0   BANK1   BANK3   BANK2
  1263 ;;      Params:         0       0       0       0       0
  1264 ;;      Locals:         0       0       0       0       0
  1265 ;;      Temps:          0       1       0       0       0
  1266 ;;      Totals:         0       1       0       0       0
  1267 ;;Total ram usage:        1 bytes
  1268 ;; Hardware stack levels used: 1
  1269 ;; Hardware stack levels required when called: 4
  1270 ;; This function calls:
  1271 ;;		_ms_timer_get
  1272 ;;		_ms_timer_init
  1273 ;;		_ms_timer_reset
  1274 ;;		_reset_clk_1
  1275 ;;		_reset_clk_2
  1276 ;;		_reset_clk_3
  1277 ;;		_reset_clk_4
  1278 ;;		_reset_reset_matrix
  1279 ;;		_set_clk_1
  1280 ;;		_set_clk_2
  1281 ;;		_set_clk_3
  1282 ;;		_set_clk_4
  1283 ;;		_set_reset_matrix
  1284 ;;		_set_row_pattern
  1285 ;; This function is called by:
  1286 ;;		_main
  1287 ;; This function uses a non-reentrant model
  1288 ;;
  1289                           
  1290     065E                     _display_multiplexer_task:	
  1291                           ;psect for function _display_multiplexer_task
  1292                           
  1293     065E                     l1656:	
  1294                           ;incstack = 0
  1295                           ; Regs used in _display_multiplexer_task: [wreg-fsr0h+status,2+status,0+btemp+1+pclath+c
      +                          stack]
  1296                           
  1297                           
  1298                           ;Drivers/display_multiplexer.c: 191:     switch(mltplxr_state){
  1299     065E  2FC4               	goto	l1776
  1300     065F                     l1658:
  1301                           
  1302                           ;Drivers/display_multiplexer.c: 193:         timer_handle = ms_timer_init();
  1303     065F  120A  118A  2592  120A  118A  	fcall	_ms_timer_init
  1304     0664  00FB               	movwf	_timer_handle
  1305                           
  1306                           ;Drivers/display_multiplexer.c: 194:         pulse_timer_handle = ms_timer_init();
  1307     0665  120A  118A  2592  120A  118A  	fcall	_ms_timer_init
  1308     066A  00FA               	movwf	_pulse_timer_handle
  1309     066B                     l1660:
  1310                           
  1311                           ;Drivers/display_multiplexer.c: 196:         reset_clk_1();
  1312     066B  120A  118A  2430  120A  118A  	fcall	_reset_clk_1
  1313     0670                     l1662:
  1314                           
  1315                           ;Drivers/display_multiplexer.c: 197:         reset_clk_2();
  1316     0670  120A  118A  2437  120A  118A  	fcall	_reset_clk_2
  1317     0675                     l1664:
  1318                           
  1319                           ;Drivers/display_multiplexer.c: 198:         reset_clk_3();
  1320     0675  120A  118A  243E  120A  118A  	fcall	_reset_clk_3
  1321     067A                     l1666:
  1322                           
  1323                           ;Drivers/display_multiplexer.c: 199:         reset_clk_4();
  1324     067A  120A  118A  2445  120A  118A  	fcall	_reset_clk_4
  1325     067F                     l1668:
  1326                           
  1327                           ;Drivers/display_multiplexer.c: 200:         mltplxr_state = RESET_STATE;
  1328     067F  1283               	bcf	3,5	;RP0=0, select bank0
  1329     0680  1303               	bcf	3,6	;RP1=0, select bank0
  1330     0681  01C0               	clrf	_mltplxr_state
  1331     0682  0AC0               	incf	_mltplxr_state,f
  1332                           
  1333                           ;Drivers/display_multiplexer.c: 201:         break;
  1334     0683  2FD7               	goto	l139
  1335     0684                     l1670:
  1336                           
  1337                           ;Drivers/display_multiplexer.c: 203:         set_reset_matrix();
  1338     0684  120A  118A  246F  120A  118A  	fcall	_set_reset_matrix
  1339     0689                     l1672:
  1340                           
  1341                           ;Drivers/display_multiplexer.c: 204:         reset_pulse_flag = 1;
  1342     0689  1283               	bcf	3,5	;RP0=0, select bank0
  1343     068A  1303               	bcf	3,6	;RP1=0, select bank0
  1344     068B  01BA               	clrf	_reset_pulse_flag
  1345     068C  0ABA               	incf	_reset_pulse_flag,f
  1346     068D                     l1674:
  1347                           
  1348                           ;Drivers/display_multiplexer.c: 206:         mltplxr_state = CLOCK_HIGH_DELAY;
  1349     068D  3004               	movlw	4
  1350     068E  1283               	bcf	3,5	;RP0=0, select bank0
  1351     068F  1303               	bcf	3,6	;RP1=0, select bank0
  1352     0690  00C0               	movwf	_mltplxr_state
  1353                           
  1354                           ;Drivers/display_multiplexer.c: 207:         break;
  1355     0691  2FD7               	goto	l139
  1356     0692                     l1676:
  1357                           
  1358                           ;Drivers/display_multiplexer.c: 209:         horizontal_index = 0;
  1359     0692  01F9               	clrf	_horizontal_index
  1360                           
  1361                           ;Drivers/display_multiplexer.c: 210:         red_index = 0;
  1362     0693  01BD               	clrf	_red_index
  1363                           
  1364                           ;Drivers/display_multiplexer.c: 211:         green_index = 0;
  1365     0694  01BC               	clrf	_green_index
  1366     0695                     l1678:
  1367                           
  1368                           ;Drivers/display_multiplexer.c: 212:         red_array_1 = red_array_1_next;
  1369     0695  0864               	movf	_red_array_1_next,w
  1370     0696  00BF               	movwf	_red_array_1
  1371     0697                     l1680:
  1372                           
  1373                           ;Drivers/display_multiplexer.c: 213:         green_array_1 = green_array_1_next;
  1374     0697  0863               	movf	_green_array_1_next,w
  1375     0698  00BE               	movwf	_green_array_1
  1376     0699                     l1682:
  1377                           
  1378                           ;Drivers/display_multiplexer.c: 214:         set_row_pattern(red_array_1[(16 -1) - red_i
      +                          ndex]);
  1379     0699  083F               	movf	_red_array_1,w
  1380     069A  3E0F               	addlw	15
  1381     069B  0084               	movwf	4
  1382     069C  1383               	bcf	3,7	;select IRP bank0
  1383     069D  0800               	movf	0,w
  1384     069E  120A  118A  24A6  120A  118A  	fcall	_set_row_pattern
  1385     06A3                     l1684:
  1386                           
  1387                           ;Drivers/display_multiplexer.c: 215:         red_index++;
  1388     06A3  3001               	movlw	1
  1389     06A4  00FF               	movwf	btemp+1
  1390     06A5  087F               	movf	btemp+1,w
  1391     06A6  1283               	bcf	3,5	;RP0=0, select bank0
  1392     06A7  1303               	bcf	3,6	;RP1=0, select bank0
  1393     06A8  07BD               	addwf	_red_index,f
  1394     06A9                     l1686:
  1395                           
  1396                           ;Drivers/display_multiplexer.c: 216:         horizontal_index++;
  1397     06A9  3001               	movlw	1
  1398     06AA  00FF               	movwf	btemp+1
  1399     06AB  087F               	movf	btemp+1,w
  1400     06AC  07F9               	addwf	_horizontal_index,f
  1401     06AD                     l1688:
  1402                           
  1403                           ;Drivers/display_multiplexer.c: 217:         ms_timer_reset(pulse_timer_handle);
  1404     06AD  087A               	movf	_pulse_timer_handle,w
  1405     06AE  120A  118A  255F  120A  118A  	fcall	_ms_timer_reset
  1406     06B3                     l1690:
  1407                           
  1408                           ;Drivers/display_multiplexer.c: 218:         set_clk_3();
  1409     06B3  120A  118A  2461  120A  118A  	fcall	_set_clk_3
  1410     06B8  2E8D               	goto	l1674
  1411     06B9                     l1694:
  1412                           
  1413                           ;Drivers/display_multiplexer.c: 222:         if (ms_timer_get(timer_handle) >1) {
  1414     06B9  087B               	movf	_timer_handle,w
  1415     06BA  120A  118A  2576  120A  118A  	fcall	_ms_timer_get
  1416     06BF  0876               	movf	?_ms_timer_get+3,w
  1417     06C0  1D03               	btfss	3,2
  1418     06C1  2ED0               	goto	u580
  1419     06C2  0875               	movf	?_ms_timer_get+2,w
  1420     06C3  1D03               	btfss	3,2
  1421     06C4  2ED0               	goto	u580
  1422     06C5  0874               	movf	?_ms_timer_get+1,w
  1423     06C6  1D03               	btfss	3,2
  1424     06C7  2ED0               	goto	u580
  1425     06C8  3002               	movlw	2
  1426     06C9  0273               	subwf	?_ms_timer_get,w
  1427     06CA  1D03               	skipz
  1428     06CB  2ECC               	goto	u583
  1429     06CC                     u583:
  1430     06CC  1C03               	btfss	3,0
  1431     06CD  2ECF               	goto	u581
  1432     06CE  2ED0               	goto	u580
  1433     06CF                     u581:
  1434     06CF  2FD7               	goto	l139
  1435     06D0                     u580:
  1436     06D0                     l1696:
  1437                           
  1438                           ;Drivers/display_multiplexer.c: 223:             ms_timer_reset(timer_handle);
  1439     06D0  087B               	movf	_timer_handle,w
  1440     06D1  120A  118A  255F  120A  118A  	fcall	_ms_timer_reset
  1441                           
  1442                           ;Drivers/display_multiplexer.c: 224:             ms_timer_reset(pulse_timer_handle);
  1443     06D6  087A               	movf	_pulse_timer_handle,w
  1444     06D7  120A  118A  255F  120A  118A  	fcall	_ms_timer_reset
  1445     06DC                     l1698:
  1446                           
  1447                           ;Drivers/display_multiplexer.c: 226:             if (horizontal_index < 32) {
  1448     06DC  3020               	movlw	32
  1449     06DD  0279               	subwf	_horizontal_index,w
  1450     06DE  1803               	skipnc
  1451     06DF  2EE1               	goto	u591
  1452     06E0  2EE2               	goto	u590
  1453     06E1                     u591:
  1454     06E1  2F7B               	goto	l119
  1455     06E2                     u590:
  1456     06E2                     l1700:
  1457                           
  1458                           ;Drivers/display_multiplexer.c: 230:                 if (horizontal_index & 0x01) {
  1459     06E2  1C79               	btfss	_horizontal_index,0
  1460     06E3  2EE5               	goto	u601
  1461     06E4  2EE6               	goto	u600
  1462     06E5                     u601:
  1463     06E5  2EFD               	goto	l1706
  1464     06E6                     u600:
  1465     06E6                     l1702:
  1466                           
  1467                           ;Drivers/display_multiplexer.c: 232:                     set_row_pattern(green_array_1[(
      +                          16 -1) - green_index]);
  1468     06E6  1283               	bcf	3,5	;RP0=0, select bank0
  1469     06E7  1303               	bcf	3,6	;RP1=0, select bank0
  1470     06E8  083E               	movf	_green_array_1,w
  1471     06E9  00E6               	movwf	??_display_multiplexer_task
  1472     06EA  083C               	movf	_green_index,w
  1473     06EB  02E6               	subwf	??_display_multiplexer_task,f
  1474     06EC  0866               	movf	??_display_multiplexer_task,w
  1475     06ED  3E0F               	addlw	15
  1476     06EE  0084               	movwf	4
  1477     06EF  1383               	bcf	3,7	;select IRP bank0
  1478     06F0  0800               	movf	0,w
  1479     06F1  120A  118A  24A6  120A  118A  	fcall	_set_row_pattern
  1480     06F6                     l1704:
  1481                           
  1482                           ;Drivers/display_multiplexer.c: 233:                     green_index++;
  1483     06F6  3001               	movlw	1
  1484     06F7  00FF               	movwf	btemp+1
  1485     06F8  087F               	movf	btemp+1,w
  1486     06F9  1283               	bcf	3,5	;RP0=0, select bank0
  1487     06FA  1303               	bcf	3,6	;RP1=0, select bank0
  1488     06FB  07BC               	addwf	_green_index,f
  1489                           
  1490                           ;Drivers/display_multiplexer.c: 234:                 } else {
  1491     06FC  2F13               	goto	l1710
  1492     06FD                     l1706:
  1493                           
  1494                           ;Drivers/display_multiplexer.c: 235:                     set_row_pattern(red_array_1[(16
      +                           -1) - red_index]);
  1495     06FD  1283               	bcf	3,5	;RP0=0, select bank0
  1496     06FE  1303               	bcf	3,6	;RP1=0, select bank0
  1497     06FF  083F               	movf	_red_array_1,w
  1498     0700  00E6               	movwf	??_display_multiplexer_task
  1499     0701  083D               	movf	_red_index,w
  1500     0702  02E6               	subwf	??_display_multiplexer_task,f
  1501     0703  0866               	movf	??_display_multiplexer_task,w
  1502     0704  3E0F               	addlw	15
  1503     0705  0084               	movwf	4
  1504     0706  1383               	bcf	3,7	;select IRP bank0
  1505     0707  0800               	movf	0,w
  1506     0708  120A  118A  24A6  120A  118A  	fcall	_set_row_pattern
  1507     070D                     l1708:
  1508                           
  1509                           ;Drivers/display_multiplexer.c: 236:                     red_index++;
  1510     070D  3001               	movlw	1
  1511     070E  00FF               	movwf	btemp+1
  1512     070F  087F               	movf	btemp+1,w
  1513     0710  1283               	bcf	3,5	;RP0=0, select bank0
  1514     0711  1303               	bcf	3,6	;RP1=0, select bank0
  1515     0712  07BD               	addwf	_red_index,f
  1516     0713                     l1710:
  1517                           
  1518                           ;Drivers/display_multiplexer.c: 239:                 if ( horizontal_index > 0 && horizo
      +                          ntal_index <= 7) {
  1519     0713  0879               	movf	_horizontal_index,w
  1520     0714  1903               	btfsc	3,2
  1521     0715  2F17               	goto	u611
  1522     0716  2F18               	goto	u610
  1523     0717                     u611:
  1524     0717  2F24               	goto	l1716
  1525     0718                     u610:
  1526     0718                     l1712:
  1527     0718  3008               	movlw	8
  1528     0719  0279               	subwf	_horizontal_index,w
  1529     071A  1803               	skipnc
  1530     071B  2F1D               	goto	u621
  1531     071C  2F1E               	goto	u620
  1532     071D                     u621:
  1533     071D  2F24               	goto	l1716
  1534     071E                     u620:
  1535     071E                     l1714:
  1536                           
  1537                           ;Drivers/display_multiplexer.c: 241:                     set_clk_3();
  1538     071E  120A  118A  2461  120A  118A  	fcall	_set_clk_3
  1539                           
  1540                           ;Drivers/display_multiplexer.c: 242:                 } else if (horizontal_index == 7 + 
      +                          1){
  1541     0723  2F2B               	goto	l1720
  1542     0724                     l1716:
  1543     0724  3008               	movlw	8
  1544     0725  0679               	xorwf	_horizontal_index,w
  1545     0726  1D03               	btfss	3,2
  1546     0727  2F29               	goto	u631
  1547     0728  2F2A               	goto	u630
  1548     0729                     u631:
  1549     0729  2F2B               	goto	l1720
  1550     072A                     u630:
  1551     072A  2F1E               	goto	l1714
  1552     072B                     l1720:
  1553                           
  1554                           ;Drivers/display_multiplexer.c: 248:                 if (horizontal_index > 7 && horizon
      +                          tal_index <= 15 ) {
  1555     072B  3008               	movlw	8
  1556     072C  0279               	subwf	_horizontal_index,w
  1557     072D  1C03               	skipc
  1558     072E  2F30               	goto	u641
  1559     072F  2F31               	goto	u640
  1560     0730                     u641:
  1561     0730  2F3D               	goto	l1726
  1562     0731                     u640:
  1563     0731                     l1722:
  1564     0731  3010               	movlw	16
  1565     0732  0279               	subwf	_horizontal_index,w
  1566     0733  1803               	skipnc
  1567     0734  2F36               	goto	u651
  1568     0735  2F37               	goto	u650
  1569     0736                     u651:
  1570     0736  2F3D               	goto	l1726
  1571     0737                     u650:
  1572     0737                     l1724:
  1573                           
  1574                           ;Drivers/display_multiplexer.c: 250:                     set_clk_4();
  1575     0737  120A  118A  2468  120A  118A  	fcall	_set_clk_4
  1576                           
  1577                           ;Drivers/display_multiplexer.c: 251:                 } else if (horizontal_index == 15 +
      +                           1) {
  1578     073C  2F44               	goto	l1730
  1579     073D                     l1726:
  1580     073D  3010               	movlw	16
  1581     073E  0679               	xorwf	_horizontal_index,w
  1582     073F  1D03               	btfss	3,2
  1583     0740  2F42               	goto	u661
  1584     0741  2F43               	goto	u660
  1585     0742                     u661:
  1586     0742  2F44               	goto	l1730
  1587     0743                     u660:
  1588     0743  2F37               	goto	l1724
  1589     0744                     l1730:
  1590                           
  1591                           ;Drivers/display_multiplexer.c: 257:                 if (horizontal_index > 15 && horizo
      +                          ntal_index <= 23) {
  1592     0744  3010               	movlw	16
  1593     0745  0279               	subwf	_horizontal_index,w
  1594     0746  1C03               	skipc
  1595     0747  2F49               	goto	u671
  1596     0748  2F4A               	goto	u670
  1597     0749                     u671:
  1598     0749  2F56               	goto	l1736
  1599     074A                     u670:
  1600     074A                     l1732:
  1601     074A  3018               	movlw	24
  1602     074B  0279               	subwf	_horizontal_index,w
  1603     074C  1803               	skipnc
  1604     074D  2F4F               	goto	u681
  1605     074E  2F50               	goto	u680
  1606     074F                     u681:
  1607     074F  2F56               	goto	l1736
  1608     0750                     u680:
  1609     0750                     l1734:
  1610                           
  1611                           ;Drivers/display_multiplexer.c: 259:                     set_clk_1();
  1612     0750  120A  118A  2453  120A  118A  	fcall	_set_clk_1
  1613                           
  1614                           ;Drivers/display_multiplexer.c: 260:                 } else if (horizontal_index == 23 +
      +                           1) {
  1615     0755  2F5D               	goto	l1740
  1616     0756                     l1736:
  1617     0756  3018               	movlw	24
  1618     0757  0679               	xorwf	_horizontal_index,w
  1619     0758  1D03               	btfss	3,2
  1620     0759  2F5B               	goto	u691
  1621     075A  2F5C               	goto	u690
  1622     075B                     u691:
  1623     075B  2F5D               	goto	l1740
  1624     075C                     u690:
  1625     075C  2F50               	goto	l1734
  1626     075D                     l1740:
  1627                           
  1628                           ;Drivers/display_multiplexer.c: 266:                 if (horizontal_index > 23 && horizo
      +                          ntal_index <= 31) {
  1629     075D  3018               	movlw	24
  1630     075E  0279               	subwf	_horizontal_index,w
  1631     075F  1C03               	skipc
  1632     0760  2F62               	goto	u701
  1633     0761  2F63               	goto	u700
  1634     0762                     u701:
  1635     0762  2F6F               	goto	l1746
  1636     0763                     u700:
  1637     0763                     l1742:
  1638     0763  3020               	movlw	32
  1639     0764  0279               	subwf	_horizontal_index,w
  1640     0765  1803               	skipnc
  1641     0766  2F68               	goto	u711
  1642     0767  2F69               	goto	u710
  1643     0768                     u711:
  1644     0768  2F6F               	goto	l1746
  1645     0769                     u710:
  1646     0769                     l1744:
  1647                           
  1648                           ;Drivers/display_multiplexer.c: 268:                     set_clk_2();
  1649     0769  120A  118A  245A  120A  118A  	fcall	_set_clk_2
  1650                           
  1651                           ;Drivers/display_multiplexer.c: 269:                 } else if (horizontal_index == 31 +
      +                           1) {
  1652     076E  2F76               	goto	l1750
  1653     076F                     l1746:
  1654     076F  3020               	movlw	32
  1655     0770  0679               	xorwf	_horizontal_index,w
  1656     0771  1D03               	btfss	3,2
  1657     0772  2F74               	goto	u721
  1658     0773  2F75               	goto	u720
  1659     0774                     u721:
  1660     0774  2F76               	goto	l1750
  1661     0775                     u720:
  1662     0775  2F69               	goto	l1744
  1663     0776                     l1750:
  1664                           
  1665                           ;Drivers/display_multiplexer.c: 274:                 horizontal_index++;
  1666     0776  3001               	movlw	1
  1667     0777  00FF               	movwf	btemp+1
  1668     0778  087F               	movf	btemp+1,w
  1669     0779  07F9               	addwf	_horizontal_index,f
  1670     077A  2E8D               	goto	l1674
  1671     077B                     l119:
  1672                           
  1673                           ;Drivers/display_multiplexer.c: 277:                 frame_complete_flag = 1;
  1674     077B  1283               	bcf	3,5	;RP0=0, select bank0
  1675     077C  1303               	bcf	3,6	;RP1=0, select bank0
  1676     077D  01BB               	clrf	_frame_complete_flag
  1677     077E  0ABB               	incf	_frame_complete_flag,f
  1678     077F  2E84               	goto	l1670
  1679     0780                     l1760:
  1680                           
  1681                           ;Drivers/display_multiplexer.c: 285:         if (ms_timer_get(pulse_timer_handle) >4 ){
  1682     0780  087A               	movf	_pulse_timer_handle,w
  1683     0781  120A  118A  2576  120A  118A  	fcall	_ms_timer_get
  1684     0786  0876               	movf	?_ms_timer_get+3,w
  1685     0787  1D03               	btfss	3,2
  1686     0788  2F97               	goto	u730
  1687     0789  0875               	movf	?_ms_timer_get+2,w
  1688     078A  1D03               	btfss	3,2
  1689     078B  2F97               	goto	u730
  1690     078C  0874               	movf	?_ms_timer_get+1,w
  1691     078D  1D03               	btfss	3,2
  1692     078E  2F97               	goto	u730
  1693     078F  3005               	movlw	5
  1694     0790  0273               	subwf	?_ms_timer_get,w
  1695     0791  1D03               	skipz
  1696     0792  2F93               	goto	u733
  1697     0793                     u733:
  1698     0793  1C03               	btfss	3,0
  1699     0794  2F96               	goto	u731
  1700     0795  2F97               	goto	u730
  1701     0796                     u731:
  1702     0796  2FD7               	goto	l139
  1703     0797                     u730:
  1704     0797                     l1762:
  1705                           
  1706                           ;Drivers/display_multiplexer.c: 286:             reset_reset_matrix();
  1707     0797  120A  118A  244C  120A  118A  	fcall	_reset_reset_matrix
  1708                           
  1709                           ;Drivers/display_multiplexer.c: 287:             reset_clk_1();
  1710     079C  120A  118A  2430  120A  118A  	fcall	_reset_clk_1
  1711                           
  1712                           ;Drivers/display_multiplexer.c: 288:             reset_clk_2();
  1713     07A1  120A  118A  2437  120A  118A  	fcall	_reset_clk_2
  1714                           
  1715                           ;Drivers/display_multiplexer.c: 289:             reset_clk_3();
  1716     07A6  120A  118A  243E  120A  118A  	fcall	_reset_clk_3
  1717                           
  1718                           ;Drivers/display_multiplexer.c: 290:             reset_clk_4();
  1719     07AB  120A  118A  2445  120A  118A  	fcall	_reset_clk_4
  1720     07B0                     l1764:
  1721                           
  1722                           ;Drivers/display_multiplexer.c: 291:             if (reset_pulse_flag == 1) {
  1723     07B0  1283               	bcf	3,5	;RP0=0, select bank0
  1724     07B1  1303               	bcf	3,6	;RP1=0, select bank0
  1725     07B2  033A               	decf	_reset_pulse_flag,w
  1726     07B3  1D03               	btfss	3,2
  1727     07B4  2FB6               	goto	u741
  1728     07B5  2FB7               	goto	u740
  1729     07B6                     u741:
  1730     07B6  2FBB               	goto	l1770
  1731     07B7                     u740:
  1732     07B7                     l1766:
  1733                           
  1734                           ;Drivers/display_multiplexer.c: 292:                 reset_pulse_flag = 0;
  1735     07B7  01BA               	clrf	_reset_pulse_flag
  1736     07B8                     l1768:
  1737                           
  1738                           ;Drivers/display_multiplexer.c: 293:                 mltplxr_state = FRAME_START;
  1739     07B8  3002               	movlw	2
  1740     07B9  00C0               	movwf	_mltplxr_state
  1741                           
  1742                           ;Drivers/display_multiplexer.c: 294:             } else {
  1743     07BA  2FBD               	goto	l1772
  1744     07BB                     l1770:
  1745                           
  1746                           ;Drivers/display_multiplexer.c: 295:                 mltplxr_state = RUN_STATE;
  1747     07BB  3003               	movlw	3
  1748     07BC  00C0               	movwf	_mltplxr_state
  1749     07BD                     l1772:
  1750                           
  1751                           ;Drivers/display_multiplexer.c: 297:             ms_timer_reset(timer_handle);
  1752     07BD  087B               	movf	_timer_handle,w
  1753     07BE  120A  118A  255F  120A  118A  	fcall	_ms_timer_reset
  1754     07C3  2FD7               	goto	l139
  1755     07C4                     l1776:
  1756     07C4  1283               	bcf	3,5	;RP0=0, select bank0
  1757     07C5  1303               	bcf	3,6	;RP1=0, select bank0
  1758     07C6  0840               	movf	_mltplxr_state,w
  1759                           
  1760                           ; Switch size 1, requested type "simple"
  1761                           ; Number of cases is 5, Range of values is 0 to 4
  1762                           ; switch strategies available:
  1763                           ; Name         Instructions Cycles
  1764                           ; simple_byte           16     9 (average)
  1765                           ; direct_byte           23     8 (fixed)
  1766                           ; jumptable            260     6 (fixed)
  1767                           ;	Chosen strategy is simple_byte
  1768     07C7  3A00               	xorlw	0	; case 0
  1769     07C8  1903               	skipnz
  1770     07C9  2E5F               	goto	l1658
  1771     07CA  3A01               	xorlw	1	; case 1
  1772     07CB  1903               	skipnz
  1773     07CC  2E84               	goto	l1670
  1774     07CD  3A03               	xorlw	3	; case 2
  1775     07CE  1903               	skipnz
  1776     07CF  2E92               	goto	l1676
  1777     07D0  3A01               	xorlw	1	; case 3
  1778     07D1  1903               	skipnz
  1779     07D2  2EB9               	goto	l1694
  1780     07D3  3A07               	xorlw	7	; case 4
  1781     07D4  1903               	skipnz
  1782     07D5  2F80               	goto	l1760
  1783     07D6  2FD7               	goto	l139
  1784     07D7                     l139:
  1785     07D7  0008               	return
  1786     07D8                     __end_of_display_multiplexer_task:
  1787                           
  1788                           	psect	text3
  1789     04A6                     __ptext3:	
  1790 ;; *************** function _set_row_pattern *****************
  1791 ;; Defined at:
  1792 ;;		line 119 in file "Drivers/display_multiplexer.c"
  1793 ;; Parameters:    Size  Location     Type
  1794 ;;  pattern         1    wreg     unsigned char 
  1795 ;; Auto vars:     Size  Location     Type
  1796 ;;  pattern         1    3[COMMON] unsigned char 
  1797 ;; Return value:  Size  Location     Type
  1798 ;;                  1    wreg      void 
  1799 ;; Registers used:
  1800 ;;		wreg, status,2, status,0, pclath, cstack
  1801 ;; Tracked objects:
  1802 ;;		On entry : 0/0
  1803 ;;		On exit  : 0/0
  1804 ;;		Unchanged: 0/0
  1805 ;; Data sizes:     COMMON   BANK0   BANK1   BANK3   BANK2
  1806 ;;      Params:         0       0       0       0       0
  1807 ;;      Locals:         1       0       0       0       0
  1808 ;;      Temps:          0       0       0       0       0
  1809 ;;      Totals:         1       0       0       0       0
  1810 ;;Total ram usage:        1 bytes
  1811 ;; Hardware stack levels used: 1
  1812 ;; Hardware stack levels required when called: 3
  1813 ;; This function calls:
  1814 ;;		_set_PORTD_pins
  1815 ;; This function is called by:
  1816 ;;		_display_multiplexer_task
  1817 ;;		_show_Test_line
  1818 ;; This function uses a non-reentrant model
  1819 ;;
  1820                           
  1821     04A6                     _set_row_pattern:	
  1822                           ;psect for function _set_row_pattern
  1823                           
  1824                           
  1825                           ;incstack = 0
  1826                           ; Regs used in _set_row_pattern: [wreg+status,2+status,0+pclath+cstack]
  1827                           ;set_row_pattern@pattern stored from wreg
  1828     04A6  00F4               	movwf	set_row_pattern@pattern
  1829     04A7                     l1334:
  1830                           
  1831                           ;Drivers/display_multiplexer.c: 120:     set_PORTD_pins(pattern);
  1832     04A7  0874               	movf	set_row_pattern@pattern,w
  1833     04A8  120A  118A  2423  120A  118A  	fcall	_set_PORTD_pins
  1834     04AD                     l79:
  1835     04AD  0008               	return
  1836     04AE                     __end_of_set_row_pattern:
  1837                           
  1838                           	psect	text4
  1839     0423                     __ptext4:	
  1840 ;; *************** function _set_PORTD_pins *****************
  1841 ;; Defined at:
  1842 ;;		line 249 in file "System/GPIO_driver.c"
  1843 ;; Parameters:    Size  Location     Type
  1844 ;;  bit_field       1    wreg     unsigned char 
  1845 ;; Auto vars:     Size  Location     Type
  1846 ;;  bit_field       1    2[COMMON] unsigned char 
  1847 ;; Return value:  Size  Location     Type
  1848 ;;                  1    wreg      void 
  1849 ;; Registers used:
  1850 ;;		wreg
  1851 ;; Tracked objects:
  1852 ;;		On entry : 0/0
  1853 ;;		On exit  : 0/0
  1854 ;;		Unchanged: 0/0
  1855 ;; Data sizes:     COMMON   BANK0   BANK1   BANK3   BANK2
  1856 ;;      Params:         0       0       0       0       0
  1857 ;;      Locals:         1       0       0       0       0
  1858 ;;      Temps:          0       0       0       0       0
  1859 ;;      Totals:         1       0       0       0       0
  1860 ;;Total ram usage:        1 bytes
  1861 ;; Hardware stack levels used: 1
  1862 ;; Hardware stack levels required when called: 2
  1863 ;; This function calls:
  1864 ;;		Nothing
  1865 ;; This function is called by:
  1866 ;;		_set_row_pattern
  1867 ;; This function uses a non-reentrant model
  1868 ;;
  1869                           
  1870     0423                     _set_PORTD_pins:	
  1871                           ;psect for function _set_PORTD_pins
  1872                           
  1873                           
  1874                           ;incstack = 0
  1875                           ; Regs used in _set_PORTD_pins: [wreg]
  1876                           ;set_PORTD_pins@bit_field stored from wreg
  1877     0423  00F3               	movwf	set_PORTD_pins@bit_field
  1878     0424                     l1320:
  1879                           
  1880                           ;System/GPIO_driver.c: 249: void __attribute__((inline)) set_PORTD_pins(uint8_t bit_fiel
      +                          d);System/GPIO_driver.c: 250: {;System/GPIO_driver.c: 251:     PORTD = bit_field;
  1881     0424  0873               	movf	set_PORTD_pins@bit_field,w
  1882     0425  1283               	bcf	3,5	;RP0=0, select bank0
  1883     0426  1303               	bcf	3,6	;RP1=0, select bank0
  1884     0427  0088               	movwf	8	;volatile
  1885     0428                     l214:
  1886     0428  0008               	return
  1887     0429                     __end_of_set_PORTD_pins:
  1888                           
  1889                           	psect	text5
  1890     046F                     __ptext5:	
  1891 ;; *************** function _set_reset_matrix *****************
  1892 ;; Defined at:
  1893 ;;		line 125 in file "Drivers/display_multiplexer.c"
  1894 ;; Parameters:    Size  Location     Type
  1895 ;;		None
  1896 ;; Auto vars:     Size  Location     Type
  1897 ;;		None
  1898 ;; Return value:  Size  Location     Type
  1899 ;;                  1    wreg      void 
  1900 ;; Registers used:
  1901 ;;		wreg, status,2, status,0, btemp+1, pclath, cstack
  1902 ;; Tracked objects:
  1903 ;;		On entry : 0/0
  1904 ;;		On exit  : 0/0
  1905 ;;		Unchanged: 0/0
  1906 ;; Data sizes:     COMMON   BANK0   BANK1   BANK3   BANK2
  1907 ;;      Params:         0       0       0       0       0
  1908 ;;      Locals:         0       0       0       0       0
  1909 ;;      Temps:          0       0       0       0       0
  1910 ;;      Totals:         0       0       0       0       0
  1911 ;;Total ram usage:        0 bytes
  1912 ;; Hardware stack levels used: 1
  1913 ;; Hardware stack levels required when called: 3
  1914 ;; This function calls:
  1915 ;;		_set_PORTE_pins
  1916 ;; This function is called by:
  1917 ;;		_display_multiplexer_task
  1918 ;; This function uses a non-reentrant model
  1919 ;;
  1920                           
  1921     046F                     _set_reset_matrix:	
  1922                           ;psect for function _set_reset_matrix
  1923                           
  1924     046F                     l1336:	
  1925                           ;incstack = 0
  1926                           ; Regs used in _set_reset_matrix: [wreg+status,2+status,0+btemp+1+pclath+cstack]
  1927                           
  1928                           
  1929                           ;Drivers/display_multiplexer.c: 127:     set_PORTE_pins(0x04);
  1930     046F  3004               	movlw	4
  1931     0470  120A  118A  248E  120A  118A  	fcall	_set_PORTE_pins
  1932     0475                     l82:
  1933     0475  0008               	return
  1934     0476                     __end_of_set_reset_matrix:
  1935                           
  1936                           	psect	text6
  1937     0468                     __ptext6:	
  1938 ;; *************** function _set_clk_4 *****************
  1939 ;; Defined at:
  1940 ;;		line 170 in file "Drivers/display_multiplexer.c"
  1941 ;; Parameters:    Size  Location     Type
  1942 ;;		None
  1943 ;; Auto vars:     Size  Location     Type
  1944 ;;		None
  1945 ;; Return value:  Size  Location     Type
  1946 ;;                  1    wreg      void 
  1947 ;; Registers used:
  1948 ;;		wreg, status,2, status,0, btemp+1, pclath, cstack
  1949 ;; Tracked objects:
  1950 ;;		On entry : 0/0
  1951 ;;		On exit  : 0/0
  1952 ;;		Unchanged: 0/0
  1953 ;; Data sizes:     COMMON   BANK0   BANK1   BANK3   BANK2
  1954 ;;      Params:         0       0       0       0       0
  1955 ;;      Locals:         0       0       0       0       0
  1956 ;;      Temps:          0       0       0       0       0
  1957 ;;      Totals:         0       0       0       0       0
  1958 ;;Total ram usage:        0 bytes
  1959 ;; Hardware stack levels used: 1
  1960 ;; Hardware stack levels required when called: 3
  1961 ;; This function calls:
  1962 ;;		_set_PORTC_pins
  1963 ;; This function is called by:
  1964 ;;		_display_multiplexer_task
  1965 ;; This function uses a non-reentrant model
  1966 ;;
  1967                           
  1968     0468                     _set_clk_4:	
  1969                           ;psect for function _set_clk_4
  1970                           
  1971     0468                     l1352:	
  1972                           ;incstack = 0
  1973                           ; Regs used in _set_clk_4: [wreg+status,2+status,0+btemp+1+pclath+cstack]
  1974                           
  1975                           
  1976                           ;Drivers/display_multiplexer.c: 172:     set_PORTC_pins(0x01);
  1977     0468  3001               	movlw	1
  1978     0469  120A  118A  249E  120A  118A  	fcall	_set_PORTC_pins
  1979     046E                     l106:
  1980     046E  0008               	return
  1981     046F                     __end_of_set_clk_4:
  1982                           
  1983                           	psect	text7
  1984     049E                     __ptext7:	
  1985 ;; *************** function _set_PORTC_pins *****************
  1986 ;; Defined at:
  1987 ;;		line 233 in file "System/GPIO_driver.c"
  1988 ;; Parameters:    Size  Location     Type
  1989 ;;  bit_field       1    wreg     unsigned char 
  1990 ;; Auto vars:     Size  Location     Type
  1991 ;;  bit_field       1    2[COMMON] unsigned char 
  1992 ;; Return value:  Size  Location     Type
  1993 ;;                  1    wreg      void 
  1994 ;; Registers used:
  1995 ;;		wreg, status,2, status,0, btemp+1
  1996 ;; Tracked objects:
  1997 ;;		On entry : 0/0
  1998 ;;		On exit  : 0/0
  1999 ;;		Unchanged: 0/0
  2000 ;; Data sizes:     COMMON   BANK0   BANK1   BANK3   BANK2
  2001 ;;      Params:         0       0       0       0       0
  2002 ;;      Locals:         1       0       0       0       0
  2003 ;;      Temps:          0       0       0       0       0
  2004 ;;      Totals:         1       0       0       0       0
  2005 ;;Total ram usage:        1 bytes
  2006 ;; Hardware stack levels used: 1
  2007 ;; Hardware stack levels required when called: 2
  2008 ;; This function calls:
  2009 ;;		Nothing
  2010 ;; This function is called by:
  2011 ;;		_set_clk_4
  2012 ;; This function uses a non-reentrant model
  2013 ;;
  2014                           
  2015     049E                     _set_PORTC_pins:	
  2016                           ;psect for function _set_PORTC_pins
  2017                           
  2018                           
  2019                           ;incstack = 0
  2020                           ; Regs used in _set_PORTC_pins: [wreg+status,2+status,0+btemp+1]
  2021                           ;set_PORTC_pins@bit_field stored from wreg
  2022     049E  00F3               	movwf	set_PORTC_pins@bit_field
  2023     049F                     l1330:
  2024                           
  2025                           ;System/GPIO_driver.c: 233: void __attribute__((inline)) set_PORTC_pins(uint8_t bit_fiel
      +                          d);System/GPIO_driver.c: 234: {;System/GPIO_driver.c: 235:     PORTC |= bit_field;
  2026     049F  0873               	movf	set_PORTC_pins@bit_field,w	;volatile
  2027     04A0  00FF               	movwf	btemp+1
  2028     04A1  087F               	movf	btemp+1,w
  2029     04A2  1283               	bcf	3,5	;RP0=0, select bank0
  2030     04A3  1303               	bcf	3,6	;RP1=0, select bank0
  2031     04A4  0487               	iorwf	7,f	;volatile
  2032     04A5                     l205:
  2033     04A5  0008               	return
  2034     04A6                     __end_of_set_PORTC_pins:
  2035                           
  2036                           	psect	text8
  2037     0461                     __ptext8:	
  2038 ;; *************** function _set_clk_3 *****************
  2039 ;; Defined at:
  2040 ;;		line 158 in file "Drivers/display_multiplexer.c"
  2041 ;; Parameters:    Size  Location     Type
  2042 ;;		None
  2043 ;; Auto vars:     Size  Location     Type
  2044 ;;		None
  2045 ;; Return value:  Size  Location     Type
  2046 ;;                  1    wreg      void 
  2047 ;; Registers used:
  2048 ;;		wreg, status,2, status,0, btemp+1, pclath, cstack
  2049 ;; Tracked objects:
  2050 ;;		On entry : 0/0
  2051 ;;		On exit  : 0/0
  2052 ;;		Unchanged: 0/0
  2053 ;; Data sizes:     COMMON   BANK0   BANK1   BANK3   BANK2
  2054 ;;      Params:         0       0       0       0       0
  2055 ;;      Locals:         0       0       0       0       0
  2056 ;;      Temps:          0       0       0       0       0
  2057 ;;      Totals:         0       0       0       0       0
  2058 ;;Total ram usage:        0 bytes
  2059 ;; Hardware stack levels used: 1
  2060 ;; Hardware stack levels required when called: 3
  2061 ;; This function calls:
  2062 ;;		_set_PORTA_pins
  2063 ;; This function is called by:
  2064 ;;		_display_multiplexer_task
  2065 ;; This function uses a non-reentrant model
  2066 ;;
  2067                           
  2068     0461                     _set_clk_3:	
  2069                           ;psect for function _set_clk_3
  2070                           
  2071     0461                     l1348:	
  2072                           ;incstack = 0
  2073                           ; Regs used in _set_clk_3: [wreg+status,2+status,0+btemp+1+pclath+cstack]
  2074                           
  2075                           
  2076                           ;Drivers/display_multiplexer.c: 161:     set_PORTA_pins(0x10);
  2077     0461  3010               	movlw	16
  2078     0462  120A  118A  2496  120A  118A  	fcall	_set_PORTA_pins
  2079     0467                     l100:
  2080     0467  0008               	return
  2081     0468                     __end_of_set_clk_3:
  2082                           
  2083                           	psect	text9
  2084     0496                     __ptext9:	
  2085 ;; *************** function _set_PORTA_pins *****************
  2086 ;; Defined at:
  2087 ;;		line 203 in file "System/GPIO_driver.c"
  2088 ;; Parameters:    Size  Location     Type
  2089 ;;  bit_field       1    wreg     unsigned char 
  2090 ;; Auto vars:     Size  Location     Type
  2091 ;;  bit_field       1    2[COMMON] unsigned char 
  2092 ;; Return value:  Size  Location     Type
  2093 ;;                  1    wreg      void 
  2094 ;; Registers used:
  2095 ;;		wreg, status,2, status,0, btemp+1
  2096 ;; Tracked objects:
  2097 ;;		On entry : 0/0
  2098 ;;		On exit  : 0/0
  2099 ;;		Unchanged: 0/0
  2100 ;; Data sizes:     COMMON   BANK0   BANK1   BANK3   BANK2
  2101 ;;      Params:         0       0       0       0       0
  2102 ;;      Locals:         1       0       0       0       0
  2103 ;;      Temps:          0       0       0       0       0
  2104 ;;      Totals:         1       0       0       0       0
  2105 ;;Total ram usage:        1 bytes
  2106 ;; Hardware stack levels used: 1
  2107 ;; Hardware stack levels required when called: 2
  2108 ;; This function calls:
  2109 ;;		Nothing
  2110 ;; This function is called by:
  2111 ;;		_set_clk_3
  2112 ;; This function uses a non-reentrant model
  2113 ;;
  2114                           
  2115     0496                     _set_PORTA_pins:	
  2116                           ;psect for function _set_PORTA_pins
  2117                           
  2118                           
  2119                           ;incstack = 0
  2120                           ; Regs used in _set_PORTA_pins: [wreg+status,2+status,0+btemp+1]
  2121                           ;set_PORTA_pins@bit_field stored from wreg
  2122     0496  00F3               	movwf	set_PORTA_pins@bit_field
  2123     0497                     l1326:
  2124                           
  2125                           ;System/GPIO_driver.c: 203: void __attribute__((inline)) set_PORTA_pins(uint8_t bit_fiel
      +                          d);System/GPIO_driver.c: 204: {;System/GPIO_driver.c: 205:     PORTA |= bit_field;
  2126     0497  0873               	movf	set_PORTA_pins@bit_field,w	;volatile
  2127     0498  00FF               	movwf	btemp+1
  2128     0499  087F               	movf	btemp+1,w
  2129     049A  1283               	bcf	3,5	;RP0=0, select bank0
  2130     049B  1303               	bcf	3,6	;RP1=0, select bank0
  2131     049C  0485               	iorwf	5,f	;volatile
  2132     049D                     l187:
  2133     049D  0008               	return
  2134     049E                     __end_of_set_PORTA_pins:
  2135                           
  2136                           	psect	text10
  2137     045A                     __ptext10:	
  2138 ;; *************** function _set_clk_2 *****************
  2139 ;; Defined at:
  2140 ;;		line 145 in file "Drivers/display_multiplexer.c"
  2141 ;; Parameters:    Size  Location     Type
  2142 ;;		None
  2143 ;; Auto vars:     Size  Location     Type
  2144 ;;		None
  2145 ;; Return value:  Size  Location     Type
  2146 ;;                  1    wreg      void 
  2147 ;; Registers used:
  2148 ;;		wreg, status,2, status,0, btemp+1, pclath, cstack
  2149 ;; Tracked objects:
  2150 ;;		On entry : 0/0
  2151 ;;		On exit  : 0/0
  2152 ;;		Unchanged: 0/0
  2153 ;; Data sizes:     COMMON   BANK0   BANK1   BANK3   BANK2
  2154 ;;      Params:         0       0       0       0       0
  2155 ;;      Locals:         0       0       0       0       0
  2156 ;;      Temps:          0       0       0       0       0
  2157 ;;      Totals:         0       0       0       0       0
  2158 ;;Total ram usage:        0 bytes
  2159 ;; Hardware stack levels used: 1
  2160 ;; Hardware stack levels required when called: 3
  2161 ;; This function calls:
  2162 ;;		_set_PORTE_pins
  2163 ;; This function is called by:
  2164 ;;		_display_multiplexer_task
  2165 ;; This function uses a non-reentrant model
  2166 ;;
  2167                           
  2168     045A                     _set_clk_2:	
  2169                           ;psect for function _set_clk_2
  2170                           
  2171     045A                     l1344:	
  2172                           ;incstack = 0
  2173                           ; Regs used in _set_clk_2: [wreg+status,2+status,0+btemp+1+pclath+cstack]
  2174                           
  2175                           
  2176                           ;Drivers/display_multiplexer.c: 147:     set_PORTE_pins(0x02);
  2177     045A  3002               	movlw	2
  2178     045B  120A  118A  248E  120A  118A  	fcall	_set_PORTE_pins
  2179     0460                     l94:
  2180     0460  0008               	return
  2181     0461                     __end_of_set_clk_2:
  2182                           
  2183                           	psect	text11
  2184     0453                     __ptext11:	
  2185 ;; *************** function _set_clk_1 *****************
  2186 ;; Defined at:
  2187 ;;		line 135 in file "Drivers/display_multiplexer.c"
  2188 ;; Parameters:    Size  Location     Type
  2189 ;;		None
  2190 ;; Auto vars:     Size  Location     Type
  2191 ;;		None
  2192 ;; Return value:  Size  Location     Type
  2193 ;;                  1    wreg      void 
  2194 ;; Registers used:
  2195 ;;		wreg, status,2, status,0, btemp+1, pclath, cstack
  2196 ;; Tracked objects:
  2197 ;;		On entry : 0/0
  2198 ;;		On exit  : 0/0
  2199 ;;		Unchanged: 0/0
  2200 ;; Data sizes:     COMMON   BANK0   BANK1   BANK3   BANK2
  2201 ;;      Params:         0       0       0       0       0
  2202 ;;      Locals:         0       0       0       0       0
  2203 ;;      Temps:          0       0       0       0       0
  2204 ;;      Totals:         0       0       0       0       0
  2205 ;;Total ram usage:        0 bytes
  2206 ;; Hardware stack levels used: 1
  2207 ;; Hardware stack levels required when called: 3
  2208 ;; This function calls:
  2209 ;;		_set_PORTE_pins
  2210 ;; This function is called by:
  2211 ;;		_display_multiplexer_task
  2212 ;; This function uses a non-reentrant model
  2213 ;;
  2214                           
  2215     0453                     _set_clk_1:	
  2216                           ;psect for function _set_clk_1
  2217                           
  2218     0453                     l1340:	
  2219                           ;incstack = 0
  2220                           ; Regs used in _set_clk_1: [wreg+status,2+status,0+btemp+1+pclath+cstack]
  2221                           
  2222                           
  2223                           ;Drivers/display_multiplexer.c: 137:     set_PORTE_pins(0x01);
  2224     0453  3001               	movlw	1
  2225     0454  120A  118A  248E  120A  118A  	fcall	_set_PORTE_pins
  2226     0459                     l88:
  2227     0459  0008               	return
  2228     045A                     __end_of_set_clk_1:
  2229                           
  2230                           	psect	text12
  2231     048E                     __ptext12:	
  2232 ;; *************** function _set_PORTE_pins *****************
  2233 ;; Defined at:
  2234 ;;		line 265 in file "System/GPIO_driver.c"
  2235 ;; Parameters:    Size  Location     Type
  2236 ;;  bit_field       1    wreg     unsigned char 
  2237 ;; Auto vars:     Size  Location     Type
  2238 ;;  bit_field       1    2[COMMON] unsigned char 
  2239 ;; Return value:  Size  Location     Type
  2240 ;;                  1    wreg      void 
  2241 ;; Registers used:
  2242 ;;		wreg, status,2, status,0, btemp+1
  2243 ;; Tracked objects:
  2244 ;;		On entry : 0/0
  2245 ;;		On exit  : 0/0
  2246 ;;		Unchanged: 0/0
  2247 ;; Data sizes:     COMMON   BANK0   BANK1   BANK3   BANK2
  2248 ;;      Params:         0       0       0       0       0
  2249 ;;      Locals:         1       0       0       0       0
  2250 ;;      Temps:          0       0       0       0       0
  2251 ;;      Totals:         1       0       0       0       0
  2252 ;;Total ram usage:        1 bytes
  2253 ;; Hardware stack levels used: 1
  2254 ;; Hardware stack levels required when called: 2
  2255 ;; This function calls:
  2256 ;;		Nothing
  2257 ;; This function is called by:
  2258 ;;		_set_reset_matrix
  2259 ;;		_set_clk_1
  2260 ;;		_set_clk_2
  2261 ;; This function uses a non-reentrant model
  2262 ;;
  2263                           
  2264     048E                     _set_PORTE_pins:	
  2265                           ;psect for function _set_PORTE_pins
  2266                           
  2267                           
  2268                           ;incstack = 0
  2269                           ; Regs used in _set_PORTE_pins: [wreg+status,2+status,0+btemp+1]
  2270                           ;set_PORTE_pins@bit_field stored from wreg
  2271     048E  00F3               	movwf	set_PORTE_pins@bit_field
  2272     048F                     l1322:
  2273                           
  2274                           ;System/GPIO_driver.c: 265: void __attribute__((inline)) set_PORTE_pins(uint8_t bit_fiel
      +                          d);System/GPIO_driver.c: 266: {;System/GPIO_driver.c: 267:     PORTE |= bit_field;
  2275     048F  0873               	movf	set_PORTE_pins@bit_field,w	;volatile
  2276     0490  00FF               	movwf	btemp+1
  2277     0491  087F               	movf	btemp+1,w
  2278     0492  1283               	bcf	3,5	;RP0=0, select bank0
  2279     0493  1303               	bcf	3,6	;RP1=0, select bank0
  2280     0494  0489               	iorwf	9,f	;volatile
  2281     0495                     l223:
  2282     0495  0008               	return
  2283     0496                     __end_of_set_PORTE_pins:
  2284                           
  2285                           	psect	text13
  2286     044C                     __ptext13:	
  2287 ;; *************** function _reset_reset_matrix *****************
  2288 ;; Defined at:
  2289 ;;		line 130 in file "Drivers/display_multiplexer.c"
  2290 ;; Parameters:    Size  Location     Type
  2291 ;;		None
  2292 ;; Auto vars:     Size  Location     Type
  2293 ;;		None
  2294 ;; Return value:  Size  Location     Type
  2295 ;;                  1    wreg      void 
  2296 ;; Registers used:
  2297 ;;		wreg, status,2, status,0, btemp+1, pclath, cstack
  2298 ;; Tracked objects:
  2299 ;;		On entry : 0/0
  2300 ;;		On exit  : 0/0
  2301 ;;		Unchanged: 0/0
  2302 ;; Data sizes:     COMMON   BANK0   BANK1   BANK3   BANK2
  2303 ;;      Params:         0       0       0       0       0
  2304 ;;      Locals:         0       0       0       0       0
  2305 ;;      Temps:          0       0       0       0       0
  2306 ;;      Totals:         0       0       0       0       0
  2307 ;;Total ram usage:        0 bytes
  2308 ;; Hardware stack levels used: 1
  2309 ;; Hardware stack levels required when called: 3
  2310 ;; This function calls:
  2311 ;;		_clear_PORTE_pins
  2312 ;; This function is called by:
  2313 ;;		_display_multiplexer_task
  2314 ;;		_reset_lines
  2315 ;; This function uses a non-reentrant model
  2316 ;;
  2317                           
  2318     044C                     _reset_reset_matrix:	
  2319                           ;psect for function _reset_reset_matrix
  2320                           
  2321     044C                     l1338:	
  2322                           ;incstack = 0
  2323                           ; Regs used in _reset_reset_matrix: [wreg+status,2+status,0+btemp+1+pclath+cstack]
  2324                           
  2325                           
  2326                           ;Drivers/display_multiplexer.c: 132:     clear_PORTE_pins(0x04);
  2327     044C  3004               	movlw	4
  2328     044D  120A  118A  2476  120A  118A  	fcall	_clear_PORTE_pins
  2329     0452                     l85:
  2330     0452  0008               	return
  2331     0453                     __end_of_reset_reset_matrix:
  2332                           
  2333                           	psect	text14
  2334     0445                     __ptext14:	
  2335 ;; *************** function _reset_clk_4 *****************
  2336 ;; Defined at:
  2337 ;;		line 175 in file "Drivers/display_multiplexer.c"
  2338 ;; Parameters:    Size  Location     Type
  2339 ;;		None
  2340 ;; Auto vars:     Size  Location     Type
  2341 ;;		None
  2342 ;; Return value:  Size  Location     Type
  2343 ;;                  1    wreg      void 
  2344 ;; Registers used:
  2345 ;;		wreg, status,2, status,0, btemp+1, pclath, cstack
  2346 ;; Tracked objects:
  2347 ;;		On entry : 0/0
  2348 ;;		On exit  : 0/0
  2349 ;;		Unchanged: 0/0
  2350 ;; Data sizes:     COMMON   BANK0   BANK1   BANK3   BANK2
  2351 ;;      Params:         0       0       0       0       0
  2352 ;;      Locals:         0       0       0       0       0
  2353 ;;      Temps:          0       0       0       0       0
  2354 ;;      Totals:         0       0       0       0       0
  2355 ;;Total ram usage:        0 bytes
  2356 ;; Hardware stack levels used: 1
  2357 ;; Hardware stack levels required when called: 3
  2358 ;; This function calls:
  2359 ;;		_clear_PORTC_pins
  2360 ;; This function is called by:
  2361 ;;		_display_multiplexer_task
  2362 ;;		_main
  2363 ;; This function uses a non-reentrant model
  2364 ;;
  2365                           
  2366     0445                     _reset_clk_4:	
  2367                           ;psect for function _reset_clk_4
  2368                           
  2369     0445                     l1354:	
  2370                           ;incstack = 0
  2371                           ; Regs used in _reset_clk_4: [wreg+status,2+status,0+btemp+1+pclath+cstack]
  2372                           
  2373                           
  2374                           ;Drivers/display_multiplexer.c: 177:     clear_PORTC_pins(0x01);
  2375     0445  3001               	movlw	1
  2376     0446  120A  118A  2486  120A  118A  	fcall	_clear_PORTC_pins
  2377     044B                     l109:
  2378     044B  0008               	return
  2379     044C                     __end_of_reset_clk_4:
  2380                           
  2381                           	psect	text15
  2382     0486                     __ptext15:	
  2383 ;; *************** function _clear_PORTC_pins *****************
  2384 ;; Defined at:
  2385 ;;		line 238 in file "System/GPIO_driver.c"
  2386 ;; Parameters:    Size  Location     Type
  2387 ;;  bit_field       1    wreg     unsigned char 
  2388 ;; Auto vars:     Size  Location     Type
  2389 ;;  bit_field       1    2[COMMON] unsigned char 
  2390 ;; Return value:  Size  Location     Type
  2391 ;;                  1    wreg      void 
  2392 ;; Registers used:
  2393 ;;		wreg, status,2, status,0, btemp+1
  2394 ;; Tracked objects:
  2395 ;;		On entry : 0/0
  2396 ;;		On exit  : 0/0
  2397 ;;		Unchanged: 0/0
  2398 ;; Data sizes:     COMMON   BANK0   BANK1   BANK3   BANK2
  2399 ;;      Params:         0       0       0       0       0
  2400 ;;      Locals:         1       0       0       0       0
  2401 ;;      Temps:          0       0       0       0       0
  2402 ;;      Totals:         1       0       0       0       0
  2403 ;;Total ram usage:        1 bytes
  2404 ;; Hardware stack levels used: 1
  2405 ;; Hardware stack levels required when called: 2
  2406 ;; This function calls:
  2407 ;;		Nothing
  2408 ;; This function is called by:
  2409 ;;		_reset_clk_4
  2410 ;; This function uses a non-reentrant model
  2411 ;;
  2412                           
  2413     0486                     _clear_PORTC_pins:	
  2414                           ;psect for function _clear_PORTC_pins
  2415                           
  2416                           
  2417                           ;incstack = 0
  2418                           ; Regs used in _clear_PORTC_pins: [wreg+status,2+status,0+btemp+1]
  2419                           ;clear_PORTC_pins@bit_field stored from wreg
  2420     0486  00F3               	movwf	clear_PORTC_pins@bit_field
  2421     0487                     l1332:
  2422                           
  2423                           ;System/GPIO_driver.c: 238: void __attribute__((inline)) clear_PORTC_pins(uint8_t bit_fi
      +                          eld);System/GPIO_driver.c: 239: {;System/GPIO_driver.c: 240:     PORTC &= ~(bit_field);
  2424     0487  0973               	comf	clear_PORTC_pins@bit_field,w	;volatile
  2425     0488  00FF               	movwf	btemp+1
  2426     0489  087F               	movf	btemp+1,w
  2427     048A  1283               	bcf	3,5	;RP0=0, select bank0
  2428     048B  1303               	bcf	3,6	;RP1=0, select bank0
  2429     048C  0587               	andwf	7,f	;volatile
  2430     048D                     l208:
  2431     048D  0008               	return
  2432     048E                     __end_of_clear_PORTC_pins:
  2433                           
  2434                           	psect	text16
  2435     043E                     __ptext16:	
  2436 ;; *************** function _reset_clk_3 *****************
  2437 ;; Defined at:
  2438 ;;		line 164 in file "Drivers/display_multiplexer.c"
  2439 ;; Parameters:    Size  Location     Type
  2440 ;;		None
  2441 ;; Auto vars:     Size  Location     Type
  2442 ;;		None
  2443 ;; Return value:  Size  Location     Type
  2444 ;;                  1    wreg      void 
  2445 ;; Registers used:
  2446 ;;		wreg, status,2, status,0, btemp+1, pclath, cstack
  2447 ;; Tracked objects:
  2448 ;;		On entry : 0/0
  2449 ;;		On exit  : 0/0
  2450 ;;		Unchanged: 0/0
  2451 ;; Data sizes:     COMMON   BANK0   BANK1   BANK3   BANK2
  2452 ;;      Params:         0       0       0       0       0
  2453 ;;      Locals:         0       0       0       0       0
  2454 ;;      Temps:          0       0       0       0       0
  2455 ;;      Totals:         0       0       0       0       0
  2456 ;;Total ram usage:        0 bytes
  2457 ;; Hardware stack levels used: 1
  2458 ;; Hardware stack levels required when called: 3
  2459 ;; This function calls:
  2460 ;;		_clear_PORTA_pins
  2461 ;; This function is called by:
  2462 ;;		_display_multiplexer_task
  2463 ;;		_main
  2464 ;; This function uses a non-reentrant model
  2465 ;;
  2466                           
  2467     043E                     _reset_clk_3:	
  2468                           ;psect for function _reset_clk_3
  2469                           
  2470     043E                     l1350:	
  2471                           ;incstack = 0
  2472                           ; Regs used in _reset_clk_3: [wreg+status,2+status,0+btemp+1+pclath+cstack]
  2473                           
  2474                           
  2475                           ;Drivers/display_multiplexer.c: 167:     clear_PORTA_pins(0x10);
  2476     043E  3010               	movlw	16
  2477     043F  120A  118A  247E  120A  118A  	fcall	_clear_PORTA_pins
  2478     0444                     l103:
  2479     0444  0008               	return
  2480     0445                     __end_of_reset_clk_3:
  2481                           
  2482                           	psect	text17
  2483     047E                     __ptext17:	
  2484 ;; *************** function _clear_PORTA_pins *****************
  2485 ;; Defined at:
  2486 ;;		line 208 in file "System/GPIO_driver.c"
  2487 ;; Parameters:    Size  Location     Type
  2488 ;;  bit_field       1    wreg     unsigned char 
  2489 ;; Auto vars:     Size  Location     Type
  2490 ;;  bit_field       1    2[COMMON] unsigned char 
  2491 ;; Return value:  Size  Location     Type
  2492 ;;                  1    wreg      void 
  2493 ;; Registers used:
  2494 ;;		wreg, status,2, status,0, btemp+1
  2495 ;; Tracked objects:
  2496 ;;		On entry : 0/0
  2497 ;;		On exit  : 0/0
  2498 ;;		Unchanged: 0/0
  2499 ;; Data sizes:     COMMON   BANK0   BANK1   BANK3   BANK2
  2500 ;;      Params:         0       0       0       0       0
  2501 ;;      Locals:         1       0       0       0       0
  2502 ;;      Temps:          0       0       0       0       0
  2503 ;;      Totals:         1       0       0       0       0
  2504 ;;Total ram usage:        1 bytes
  2505 ;; Hardware stack levels used: 1
  2506 ;; Hardware stack levels required when called: 2
  2507 ;; This function calls:
  2508 ;;		Nothing
  2509 ;; This function is called by:
  2510 ;;		_reset_clk_3
  2511 ;; This function uses a non-reentrant model
  2512 ;;
  2513                           
  2514     047E                     _clear_PORTA_pins:	
  2515                           ;psect for function _clear_PORTA_pins
  2516                           
  2517                           
  2518                           ;incstack = 0
  2519                           ; Regs used in _clear_PORTA_pins: [wreg+status,2+status,0+btemp+1]
  2520                           ;clear_PORTA_pins@bit_field stored from wreg
  2521     047E  00F3               	movwf	clear_PORTA_pins@bit_field
  2522     047F                     l1328:
  2523                           
  2524                           ;System/GPIO_driver.c: 208: void __attribute__((inline)) clear_PORTA_pins(uint8_t bit_fi
      +                          eld);System/GPIO_driver.c: 209: {;System/GPIO_driver.c: 210:     PORTA &= ~(bit_field);
  2525     047F  0973               	comf	clear_PORTA_pins@bit_field,w	;volatile
  2526     0480  00FF               	movwf	btemp+1
  2527     0481  087F               	movf	btemp+1,w
  2528     0482  1283               	bcf	3,5	;RP0=0, select bank0
  2529     0483  1303               	bcf	3,6	;RP1=0, select bank0
  2530     0484  0585               	andwf	5,f	;volatile
  2531     0485                     l190:
  2532     0485  0008               	return
  2533     0486                     __end_of_clear_PORTA_pins:
  2534                           
  2535                           	psect	text18
  2536     0437                     __ptext18:	
  2537 ;; *************** function _reset_clk_2 *****************
  2538 ;; Defined at:
  2539 ;;		line 150 in file "Drivers/display_multiplexer.c"
  2540 ;; Parameters:    Size  Location     Type
  2541 ;;		None
  2542 ;; Auto vars:     Size  Location     Type
  2543 ;;		None
  2544 ;; Return value:  Size  Location     Type
  2545 ;;                  1    wreg      void 
  2546 ;; Registers used:
  2547 ;;		wreg, status,2, status,0, btemp+1, pclath, cstack
  2548 ;; Tracked objects:
  2549 ;;		On entry : 0/0
  2550 ;;		On exit  : 0/0
  2551 ;;		Unchanged: 0/0
  2552 ;; Data sizes:     COMMON   BANK0   BANK1   BANK3   BANK2
  2553 ;;      Params:         0       0       0       0       0
  2554 ;;      Locals:         0       0       0       0       0
  2555 ;;      Temps:          0       0       0       0       0
  2556 ;;      Totals:         0       0       0       0       0
  2557 ;;Total ram usage:        0 bytes
  2558 ;; Hardware stack levels used: 1
  2559 ;; Hardware stack levels required when called: 3
  2560 ;; This function calls:
  2561 ;;		_clear_PORTE_pins
  2562 ;; This function is called by:
  2563 ;;		_display_multiplexer_task
  2564 ;;		_main
  2565 ;; This function uses a non-reentrant model
  2566 ;;
  2567                           
  2568     0437                     _reset_clk_2:	
  2569                           ;psect for function _reset_clk_2
  2570                           
  2571     0437                     l1346:	
  2572                           ;incstack = 0
  2573                           ; Regs used in _reset_clk_2: [wreg+status,2+status,0+btemp+1+pclath+cstack]
  2574                           
  2575                           
  2576                           ;Drivers/display_multiplexer.c: 152:     clear_PORTE_pins(0x02);
  2577     0437  3002               	movlw	2
  2578     0438  120A  118A  2476  120A  118A  	fcall	_clear_PORTE_pins
  2579     043D                     l97:
  2580     043D  0008               	return
  2581     043E                     __end_of_reset_clk_2:
  2582                           
  2583                           	psect	text19
  2584     0430                     __ptext19:	
  2585 ;; *************** function _reset_clk_1 *****************
  2586 ;; Defined at:
  2587 ;;		line 140 in file "Drivers/display_multiplexer.c"
  2588 ;; Parameters:    Size  Location     Type
  2589 ;;		None
  2590 ;; Auto vars:     Size  Location     Type
  2591 ;;		None
  2592 ;; Return value:  Size  Location     Type
  2593 ;;                  1    wreg      void 
  2594 ;; Registers used:
  2595 ;;		wreg, status,2, status,0, btemp+1, pclath, cstack
  2596 ;; Tracked objects:
  2597 ;;		On entry : 0/0
  2598 ;;		On exit  : 0/0
  2599 ;;		Unchanged: 0/0
  2600 ;; Data sizes:     COMMON   BANK0   BANK1   BANK3   BANK2
  2601 ;;      Params:         0       0       0       0       0
  2602 ;;      Locals:         0       0       0       0       0
  2603 ;;      Temps:          0       0       0       0       0
  2604 ;;      Totals:         0       0       0       0       0
  2605 ;;Total ram usage:        0 bytes
  2606 ;; Hardware stack levels used: 1
  2607 ;; Hardware stack levels required when called: 3
  2608 ;; This function calls:
  2609 ;;		_clear_PORTE_pins
  2610 ;; This function is called by:
  2611 ;;		_display_multiplexer_task
  2612 ;;		_main
  2613 ;; This function uses a non-reentrant model
  2614 ;;
  2615                           
  2616     0430                     _reset_clk_1:	
  2617                           ;psect for function _reset_clk_1
  2618                           
  2619     0430                     l1342:	
  2620                           ;incstack = 0
  2621                           ; Regs used in _reset_clk_1: [wreg+status,2+status,0+btemp+1+pclath+cstack]
  2622                           
  2623                           
  2624                           ;Drivers/display_multiplexer.c: 142:     clear_PORTE_pins(0x01);
  2625     0430  3001               	movlw	1
  2626     0431  120A  118A  2476  120A  118A  	fcall	_clear_PORTE_pins
  2627     0436                     l91:
  2628     0436  0008               	return
  2629     0437                     __end_of_reset_clk_1:
  2630                           
  2631                           	psect	text20
  2632     0476                     __ptext20:	
  2633 ;; *************** function _clear_PORTE_pins *****************
  2634 ;; Defined at:
  2635 ;;		line 270 in file "System/GPIO_driver.c"
  2636 ;; Parameters:    Size  Location     Type
  2637 ;;  bit_field       1    wreg     unsigned char 
  2638 ;; Auto vars:     Size  Location     Type
  2639 ;;  bit_field       1    2[COMMON] unsigned char 
  2640 ;; Return value:  Size  Location     Type
  2641 ;;                  1    wreg      void 
  2642 ;; Registers used:
  2643 ;;		wreg, status,2, status,0, btemp+1
  2644 ;; Tracked objects:
  2645 ;;		On entry : 0/0
  2646 ;;		On exit  : 0/0
  2647 ;;		Unchanged: 0/0
  2648 ;; Data sizes:     COMMON   BANK0   BANK1   BANK3   BANK2
  2649 ;;      Params:         0       0       0       0       0
  2650 ;;      Locals:         1       0       0       0       0
  2651 ;;      Temps:          0       0       0       0       0
  2652 ;;      Totals:         1       0       0       0       0
  2653 ;;Total ram usage:        1 bytes
  2654 ;; Hardware stack levels used: 1
  2655 ;; Hardware stack levels required when called: 2
  2656 ;; This function calls:
  2657 ;;		Nothing
  2658 ;; This function is called by:
  2659 ;;		_reset_reset_matrix
  2660 ;;		_reset_clk_1
  2661 ;;		_reset_clk_2
  2662 ;; This function uses a non-reentrant model
  2663 ;;
  2664                           
  2665     0476                     _clear_PORTE_pins:	
  2666                           ;psect for function _clear_PORTE_pins
  2667                           
  2668                           
  2669                           ;incstack = 0
  2670                           ; Regs used in _clear_PORTE_pins: [wreg+status,2+status,0+btemp+1]
  2671                           ;clear_PORTE_pins@bit_field stored from wreg
  2672     0476  00F3               	movwf	clear_PORTE_pins@bit_field
  2673     0477                     l1324:
  2674                           
  2675                           ;System/GPIO_driver.c: 270: void __attribute__((inline)) clear_PORTE_pins(uint8_t bit_fi
      +                          eld);System/GPIO_driver.c: 271: {;System/GPIO_driver.c: 272:     PORTE &= ~(bit_field);
  2676     0477  0973               	comf	clear_PORTE_pins@bit_field,w	;volatile
  2677     0478  00FF               	movwf	btemp+1
  2678     0479  087F               	movf	btemp+1,w
  2679     047A  1283               	bcf	3,5	;RP0=0, select bank0
  2680     047B  1303               	bcf	3,6	;RP1=0, select bank0
  2681     047C  0589               	andwf	9,f	;volatile
  2682     047D                     l226:
  2683     047D  0008               	return
  2684     047E                     __end_of_clear_PORTE_pins:
  2685                           
  2686                           	psect	text21
  2687     055F                     __ptext21:	
  2688 ;; *************** function _ms_timer_reset *****************
  2689 ;; Defined at:
  2690 ;;		line 118 in file "System/Timer1_driver.c"
  2691 ;; Parameters:    Size  Location     Type
  2692 ;;  timer_handle    1    wreg     unsigned char 
  2693 ;; Auto vars:     Size  Location     Type
  2694 ;;  timer_handle    1    4[COMMON] unsigned char 
  2695 ;; Return value:  Size  Location     Type
  2696 ;;                  1    wreg      void 
  2697 ;; Registers used:
  2698 ;;		wreg, fsr0l, fsr0h, status,2, status,0
  2699 ;; Tracked objects:
  2700 ;;		On entry : 0/0
  2701 ;;		On exit  : 0/0
  2702 ;;		Unchanged: 0/0
  2703 ;; Data sizes:     COMMON   BANK0   BANK1   BANK3   BANK2
  2704 ;;      Params:         0       0       0       0       0
  2705 ;;      Locals:         1       0       0       0       0
  2706 ;;      Temps:          2       0       0       0       0
  2707 ;;      Totals:         3       0       0       0       0
  2708 ;;Total ram usage:        3 bytes
  2709 ;; Hardware stack levels used: 1
  2710 ;; Hardware stack levels required when called: 2
  2711 ;; This function calls:
  2712 ;;		Nothing
  2713 ;; This function is called by:
  2714 ;;		_display_multiplexer_task
  2715 ;; This function uses a non-reentrant model
  2716 ;;
  2717                           
  2718     055F                     _ms_timer_reset:	
  2719                           ;psect for function _ms_timer_reset
  2720                           
  2721                           
  2722                           ;incstack = 0
  2723                           ; Regs used in _ms_timer_reset: [wreg-fsr0h+status,2+status,0]
  2724                           ;ms_timer_reset@timer_handle stored from wreg
  2725     055F  00F5               	movwf	ms_timer_reset@timer_handle
  2726     0560                     l1374:
  2727                           
  2728                           ;System/Timer1_driver.c: 118: void ms_timer_reset(uint8_t timer_handle );System/Timer1_d
      +                          river.c: 119: {;System/Timer1_driver.c: 120:     timer_cnt_array[timer_handle] =0;
  2729     0560  0875               	movf	ms_timer_reset@timer_handle,w
  2730     0561  00F3               	movwf	??_ms_timer_reset
  2731     0562  3002               	movlw	2
  2732     0563                     u325:
  2733     0563  1003               	clrc
  2734     0564  0DF3               	rlf	??_ms_timer_reset,f
  2735     0565  3EFF               	addlw	-1
  2736     0566  1D03               	skipz
  2737     0567  2D63               	goto	u325
  2738     0568  3020               	movlw	(low (_timer_cnt_array| 0))& (0+255)
  2739     0569  0773               	addwf	??_ms_timer_reset,w
  2740     056A  00F4               	movwf	??_ms_timer_reset+1
  2741     056B  0874               	movf	??_ms_timer_reset+1,w
  2742     056C  0084               	movwf	4
  2743     056D  1383               	bcf	3,7	;select IRP bank0
  2744     056E  0180               	clrf	0
  2745     056F  0A84               	incf	4,f
  2746     0570  0180               	clrf	0
  2747     0571  0A84               	incf	4,f
  2748     0572  0180               	clrf	0
  2749     0573  0A84               	incf	4,f
  2750     0574  0180               	clrf	0
  2751     0575                     l350:
  2752     0575  0008               	return
  2753     0576                     __end_of_ms_timer_reset:
  2754                           
  2755                           	psect	text22
  2756     0592                     __ptext22:	
  2757 ;; *************** function _ms_timer_init *****************
  2758 ;; Defined at:
  2759 ;;		line 104 in file "System/Timer1_driver.c"
  2760 ;; Parameters:    Size  Location     Type
  2761 ;;		None
  2762 ;; Auto vars:     Size  Location     Type
  2763 ;;  ret_val         1    4[COMMON] unsigned char 
  2764 ;; Return value:  Size  Location     Type
  2765 ;;                  1    wreg      unsigned char 
  2766 ;; Registers used:
  2767 ;;		wreg, fsr0l, fsr0h, status,2, status,0, btemp+1
  2768 ;; Tracked objects:
  2769 ;;		On entry : 0/0
  2770 ;;		On exit  : 0/0
  2771 ;;		Unchanged: 0/0
  2772 ;; Data sizes:     COMMON   BANK0   BANK1   BANK3   BANK2
  2773 ;;      Params:         0       0       0       0       0
  2774 ;;      Locals:         1       0       0       0       0
  2775 ;;      Temps:          2       0       0       0       0
  2776 ;;      Totals:         3       0       0       0       0
  2777 ;;Total ram usage:        3 bytes
  2778 ;; Hardware stack levels used: 1
  2779 ;; Hardware stack levels required when called: 2
  2780 ;; This function calls:
  2781 ;;		Nothing
  2782 ;; This function is called by:
  2783 ;;		_display_multiplexer_task
  2784 ;; This function uses a non-reentrant model
  2785 ;;
  2786                           
  2787     0592                     _ms_timer_init:	
  2788                           ;psect for function _ms_timer_init
  2789                           
  2790     0592                     l1356:	
  2791                           ;incstack = 0
  2792                           ; Regs used in _ms_timer_init: [wreg-fsr0h+status,2+status,0+btemp+1]
  2793                           
  2794                           
  2795                           ;System/Timer1_driver.c: 106:     uint8_t ret_val;;System/Timer1_driver.c: 107:     if (
      +                          last_timer_hndl < 5 ) {
  2796     0592  3005               	movlw	5
  2797     0593  0278               	subwf	_last_timer_hndl,w
  2798     0594  1803               	skipnc
  2799     0595  2D97               	goto	u301
  2800     0596  2D98               	goto	u300
  2801     0597                     u301:
  2802     0597  2DB5               	goto	l1370
  2803     0598                     u300:
  2804     0598                     l1358:
  2805                           
  2806                           ;System/Timer1_driver.c: 108:         timer_cnt_array[last_timer_hndl] =0;
  2807     0598  0878               	movf	_last_timer_hndl,w
  2808     0599  00F3               	movwf	??_ms_timer_init
  2809     059A  3002               	movlw	2
  2810     059B                     u315:
  2811     059B  1003               	clrc
  2812     059C  0DF3               	rlf	??_ms_timer_init,f
  2813     059D  3EFF               	addlw	-1
  2814     059E  1D03               	skipz
  2815     059F  2D9B               	goto	u315
  2816     05A0  3020               	movlw	(low (_timer_cnt_array| 0))& (0+255)
  2817     05A1  0773               	addwf	??_ms_timer_init,w
  2818     05A2  00F4               	movwf	??_ms_timer_init+1
  2819     05A3  0874               	movf	??_ms_timer_init+1,w
  2820     05A4  0084               	movwf	4
  2821     05A5  1383               	bcf	3,7	;select IRP bank0
  2822     05A6  0180               	clrf	0
  2823     05A7  0A84               	incf	4,f
  2824     05A8  0180               	clrf	0
  2825     05A9  0A84               	incf	4,f
  2826     05AA  0180               	clrf	0
  2827     05AB  0A84               	incf	4,f
  2828     05AC  0180               	clrf	0
  2829     05AD                     l1360:
  2830                           
  2831                           ;System/Timer1_driver.c: 109:         ret_val = last_timer_hndl;
  2832     05AD  0878               	movf	_last_timer_hndl,w
  2833     05AE  00F5               	movwf	ms_timer_init@ret_val
  2834     05AF                     l1362:
  2835                           
  2836                           ;System/Timer1_driver.c: 110:         last_timer_hndl++;
  2837     05AF  3001               	movlw	1
  2838     05B0  00FF               	movwf	btemp+1
  2839     05B1  087F               	movf	btemp+1,w
  2840     05B2  07F8               	addwf	_last_timer_hndl,f
  2841     05B3                     l1364:
  2842                           
  2843                           ;System/Timer1_driver.c: 111:         return ret_val;
  2844     05B3  0875               	movf	ms_timer_init@ret_val,w
  2845     05B4  2DB6               	goto	l346
  2846     05B5                     l1370:
  2847                           
  2848                           ;System/Timer1_driver.c: 113:         return 0xFF;
  2849     05B5  30FF               	movlw	255
  2850     05B6                     l346:
  2851     05B6  0008               	return
  2852     05B7                     __end_of_ms_timer_init:
  2853                           
  2854                           	psect	text23
  2855     0576                     __ptext23:	
  2856 ;; *************** function _ms_timer_get *****************
  2857 ;; Defined at:
  2858 ;;		line 123 in file "System/Timer1_driver.c"
  2859 ;; Parameters:    Size  Location     Type
  2860 ;;  timer_handle    1    wreg     unsigned char 
  2861 ;; Auto vars:     Size  Location     Type
  2862 ;;  timer_handle    1    0[BANK0 ] unsigned char 
  2863 ;; Return value:  Size  Location     Type
  2864 ;;                  4    2[COMMON] unsigned long 
  2865 ;; Registers used:
  2866 ;;		wreg, fsr0l, fsr0h, status,2, status,0
  2867 ;; Tracked objects:
  2868 ;;		On entry : 0/0
  2869 ;;		On exit  : 0/0
  2870 ;;		Unchanged: 0/0
  2871 ;; Data sizes:     COMMON   BANK0   BANK1   BANK3   BANK2
  2872 ;;      Params:         4       0       0       0       0
  2873 ;;      Locals:         0       1       0       0       0
  2874 ;;      Temps:          1       0       0       0       0
  2875 ;;      Totals:         5       1       0       0       0
  2876 ;;Total ram usage:        6 bytes
  2877 ;; Hardware stack levels used: 1
  2878 ;; Hardware stack levels required when called: 2
  2879 ;; This function calls:
  2880 ;;		Nothing
  2881 ;; This function is called by:
  2882 ;;		_display_multiplexer_task
  2883 ;; This function uses a non-reentrant model
  2884 ;;
  2885                           
  2886     0576                     _ms_timer_get:	
  2887                           ;psect for function _ms_timer_get
  2888                           
  2889                           
  2890                           ;incstack = 0
  2891                           ; Regs used in _ms_timer_get: [wreg-fsr0h+status,2+status,0]
  2892                           ;ms_timer_get@timer_handle stored from wreg
  2893     0576  1283               	bcf	3,5	;RP0=0, select bank0
  2894     0577  1303               	bcf	3,6	;RP1=0, select bank0
  2895     0578  00E5               	movwf	ms_timer_get@timer_handle
  2896     0579                     l1652:
  2897                           
  2898                           ;System/Timer1_driver.c: 123: uint32_t ms_timer_get(uint8_t timer_handle);System/Timer1_
      +                          driver.c: 124: {;System/Timer1_driver.c: 125:     return timer_cnt_array[timer_handle];
  2899     0579  0865               	movf	ms_timer_get@timer_handle,w
  2900     057A  00F7               	movwf	??_ms_timer_get
  2901     057B  3001               	movlw	1
  2902     057C                     u575:
  2903     057C  1003               	clrc
  2904     057D  0DF7               	rlf	??_ms_timer_get,f
  2905     057E  3EFF               	addlw	-1
  2906     057F  1D03               	skipz
  2907     0580  2D7C               	goto	u575
  2908     0581  1003               	clrc
  2909     0582  0D77               	rlf	??_ms_timer_get,w
  2910     0583  3E20               	addlw	(low (_timer_cnt_array| 0))& (0+255)
  2911     0584  0084               	movwf	4
  2912     0585  1383               	bcf	3,7	;select IRP bank0
  2913     0586  0800               	movf	0,w
  2914     0587  00F3               	movwf	?_ms_timer_get
  2915     0588  0A84               	incf	4,f
  2916     0589  0800               	movf	0,w
  2917     058A  00F4               	movwf	?_ms_timer_get+1
  2918     058B  0A84               	incf	4,f
  2919     058C  0800               	movf	0,w
  2920     058D  00F5               	movwf	?_ms_timer_get+2
  2921     058E  0A84               	incf	4,f
  2922     058F  0800               	movf	0,w
  2923     0590  00F6               	movwf	?_ms_timer_get+3
  2924     0591                     l353:
  2925     0591  0008               	return
  2926     0592                     __end_of_ms_timer_get:
  2927                           
  2928                           	psect	text24
  2929     041D                     __ptext24:	
  2930 ;; *************** function _display_multiplexer_set_red_array *****************
  2931 ;; Defined at:
  2932 ;;		line 100 in file "Drivers/display_multiplexer.c"
  2933 ;; Parameters:    Size  Location     Type
  2934 ;;  data_buffer     1    wreg     PTR unsigned char 
  2935 ;;		 -> k_array(16), 
  2936 ;; Auto vars:     Size  Location     Type
  2937 ;;  data_buffer     1    2[COMMON] PTR unsigned char 
  2938 ;;		 -> k_array(16), 
  2939 ;; Return value:  Size  Location     Type
  2940 ;;                  1    wreg      void 
  2941 ;; Registers used:
  2942 ;;		wreg
  2943 ;; Tracked objects:
  2944 ;;		On entry : 0/0
  2945 ;;		On exit  : 0/0
  2946 ;;		Unchanged: 0/0
  2947 ;; Data sizes:     COMMON   BANK0   BANK1   BANK3   BANK2
  2948 ;;      Params:         0       0       0       0       0
  2949 ;;      Locals:         1       0       0       0       0
  2950 ;;      Temps:          0       0       0       0       0
  2951 ;;      Totals:         1       0       0       0       0
  2952 ;;Total ram usage:        1 bytes
  2953 ;; Hardware stack levels used: 1
  2954 ;; Hardware stack levels required when called: 2
  2955 ;; This function calls:
  2956 ;;		Nothing
  2957 ;; This function is called by:
  2958 ;;		_main
  2959 ;; This function uses a non-reentrant model
  2960 ;;
  2961                           
  2962     041D                     _display_multiplexer_set_red_array:	
  2963                           ;psect for function _display_multiplexer_set_red_array
  2964                           
  2965                           
  2966                           ;incstack = 0
  2967                           ; Regs used in _display_multiplexer_set_red_array: [wreg]
  2968                           ;display_multiplexer_set_red_array@data_buffer stored from wreg
  2969     041D  00F3               	movwf	display_multiplexer_set_red_array@data_buffer
  2970     041E                     l1388:
  2971                           
  2972                           ;Drivers/display_multiplexer.c: 100: void display_multiplexer_set_red_array(uint8_t data
      +                          _buffer[]);Drivers/display_multiplexer.c: 101: {;Drivers/display_multiplexer.c: 102:    
      +                           red_array_1_next = data_buffer;
  2973     041E  0873               	movf	display_multiplexer_set_red_array@data_buffer,w
  2974     041F  1283               	bcf	3,5	;RP0=0, select bank0
  2975     0420  1303               	bcf	3,6	;RP1=0, select bank0
  2976     0421  00E4               	movwf	_red_array_1_next
  2977     0422                     l67:
  2978     0422  0008               	return
  2979     0423                     __end_of_display_multiplexer_set_red_array:
  2980                           
  2981                           	psect	text25
  2982     0417                     __ptext25:	
  2983 ;; *************** function _display_multiplexer_set_green_array *****************
  2984 ;; Defined at:
  2985 ;;		line 105 in file "Drivers/display_multiplexer.c"
  2986 ;; Parameters:    Size  Location     Type
  2987 ;;  data_buffer     1    wreg     PTR unsigned char 
  2988 ;;		 -> blank_array(16), 
  2989 ;; Auto vars:     Size  Location     Type
  2990 ;;  data_buffer     1    2[COMMON] PTR unsigned char 
  2991 ;;		 -> blank_array(16), 
  2992 ;; Return value:  Size  Location     Type
  2993 ;;                  1    wreg      void 
  2994 ;; Registers used:
  2995 ;;		wreg
  2996 ;; Tracked objects:
  2997 ;;		On entry : 0/0
  2998 ;;		On exit  : 0/0
  2999 ;;		Unchanged: 0/0
  3000 ;; Data sizes:     COMMON   BANK0   BANK1   BANK3   BANK2
  3001 ;;      Params:         0       0       0       0       0
  3002 ;;      Locals:         1       0       0       0       0
  3003 ;;      Temps:          0       0       0       0       0
  3004 ;;      Totals:         1       0       0       0       0
  3005 ;;Total ram usage:        1 bytes
  3006 ;; Hardware stack levels used: 1
  3007 ;; Hardware stack levels required when called: 2
  3008 ;; This function calls:
  3009 ;;		Nothing
  3010 ;; This function is called by:
  3011 ;;		_main
  3012 ;; This function uses a non-reentrant model
  3013 ;;
  3014                           
  3015     0417                     _display_multiplexer_set_green_array:	
  3016                           ;psect for function _display_multiplexer_set_green_array
  3017                           
  3018                           
  3019                           ;incstack = 0
  3020                           ; Regs used in _display_multiplexer_set_green_array: [wreg]
  3021                           ;display_multiplexer_set_green_array@data_buffer stored from wreg
  3022     0417  00F3               	movwf	display_multiplexer_set_green_array@data_buffer
  3023     0418                     l1390:
  3024                           
  3025                           ;Drivers/display_multiplexer.c: 105: void display_multiplexer_set_green_array(uint8_t da
      +                          ta_buffer[]);Drivers/display_multiplexer.c: 106: {;Drivers/display_multiplexer.c: 107:  
      +                             green_array_1_next = data_buffer;
  3026     0418  0873               	movf	display_multiplexer_set_green_array@data_buffer,w
  3027     0419  1283               	bcf	3,5	;RP0=0, select bank0
  3028     041A  1303               	bcf	3,6	;RP1=0, select bank0
  3029     041B  00E3               	movwf	_green_array_1_next
  3030     041C                     l70:
  3031     041C  0008               	return
  3032     041D                     __end_of_display_multiplexer_set_green_array:
  3033                           
  3034                           	psect	text26
  3035     0429                     __ptext26:	
  3036 ;; *************** function _button_B *****************
  3037 ;; Defined at:
  3038 ;;		line 45 in file "Drivers/button_inputs.c"
  3039 ;; Parameters:    Size  Location     Type
  3040 ;;		None
  3041 ;; Auto vars:     Size  Location     Type
  3042 ;;		None
  3043 ;; Return value:  Size  Location     Type
  3044 ;;                  1    wreg      unsigned char 
  3045 ;; Registers used:
  3046 ;;		wreg, status,2, status,0
  3047 ;; Tracked objects:
  3048 ;;		On entry : 0/0
  3049 ;;		On exit  : 0/0
  3050 ;;		Unchanged: 0/0
  3051 ;; Data sizes:     COMMON   BANK0   BANK1   BANK3   BANK2
  3052 ;;      Params:         0       0       0       0       0
  3053 ;;      Locals:         0       0       0       0       0
  3054 ;;      Temps:          1       0       0       0       0
  3055 ;;      Totals:         1       0       0       0       0
  3056 ;;Total ram usage:        1 bytes
  3057 ;; Hardware stack levels used: 1
  3058 ;; Hardware stack levels required when called: 2
  3059 ;; This function calls:
  3060 ;;		Nothing
  3061 ;; This function is called by:
  3062 ;;		_main
  3063 ;; This function uses a non-reentrant model
  3064 ;;
  3065                           
  3066     0429                     _button_B:	
  3067                           ;psect for function _button_B
  3068                           
  3069     0429                     l1384:	
  3070                           ;incstack = 0
  3071                           ; Regs used in _button_B: [wreg+status,2+status,0]
  3072                           
  3073                           
  3074                           ;Drivers/button_inputs.c: 47:     return PORTBbits.RB5;
  3075     0429  1283               	bcf	3,5	;RP0=0, select bank0
  3076     042A  1303               	bcf	3,6	;RP1=0, select bank0
  3077     042B  0E06               	swapf	6,w	;volatile
  3078     042C  00F3               	movwf	??_button_B
  3079     042D  0C73               	rrf	??_button_B,w
  3080     042E  3901               	andlw	1
  3081     042F                     l20:
  3082     042F  0008               	return
  3083     0430                     __end_of_button_B:
  3084                           
  3085                           	psect	text27
  3086     0412                     __ptext27:	
  3087 ;; *************** function _button_A *****************
  3088 ;; Defined at:
  3089 ;;		line 39 in file "Drivers/button_inputs.c"
  3090 ;; Parameters:    Size  Location     Type
  3091 ;;		None
  3092 ;; Auto vars:     Size  Location     Type
  3093 ;;		None
  3094 ;; Return value:  Size  Location     Type
  3095 ;;                  1    wreg      unsigned char 
  3096 ;; Registers used:
  3097 ;;		wreg, status,2, status,0
  3098 ;; Tracked objects:
  3099 ;;		On entry : 0/0
  3100 ;;		On exit  : 0/0
  3101 ;;		Unchanged: 0/0
  3102 ;; Data sizes:     COMMON   BANK0   BANK1   BANK3   BANK2
  3103 ;;      Params:         0       0       0       0       0
  3104 ;;      Locals:         0       0       0       0       0
  3105 ;;      Temps:          0       0       0       0       0
  3106 ;;      Totals:         0       0       0       0       0
  3107 ;;Total ram usage:        0 bytes
  3108 ;; Hardware stack levels used: 1
  3109 ;; Hardware stack levels required when called: 2
  3110 ;; This function calls:
  3111 ;;		Nothing
  3112 ;; This function is called by:
  3113 ;;		_main
  3114 ;; This function uses a non-reentrant model
  3115 ;;
  3116                           
  3117     0412                     _button_A:	
  3118                           ;psect for function _button_A
  3119                           
  3120     0412                     l1380:	
  3121                           ;incstack = 0
  3122                           ; Regs used in _button_A: [wreg+status,2+status,0]
  3123                           
  3124                           
  3125                           ;Drivers/button_inputs.c: 41:     return PORTBbits.RB4;
  3126     0412  1283               	bcf	3,5	;RP0=0, select bank0
  3127     0413  1303               	bcf	3,6	;RP1=0, select bank0
  3128     0414  0E06               	swapf	6,w	;volatile
  3129     0415  3901               	andlw	1
  3130     0416                     l17:
  3131     0416  0008               	return
  3132     0417                     __end_of_button_A:
  3133                           
  3134                           	psect	text28
  3135     050D                     __ptext28:	
  3136 ;; *************** function _Timer1_config *****************
  3137 ;; Defined at:
  3138 ;;		line 24 in file "System/Timer1_driver.c"
  3139 ;; Parameters:    Size  Location     Type
  3140 ;;		None
  3141 ;; Auto vars:     Size  Location     Type
  3142 ;;		None
  3143 ;; Return value:  Size  Location     Type
  3144 ;;                  1    wreg      void 
  3145 ;; Registers used:
  3146 ;;		wreg, status,2
  3147 ;; Tracked objects:
  3148 ;;		On entry : 0/0
  3149 ;;		On exit  : 0/0
  3150 ;;		Unchanged: 0/0
  3151 ;; Data sizes:     COMMON   BANK0   BANK1   BANK3   BANK2
  3152 ;;      Params:         0       0       0       0       0
  3153 ;;      Locals:         0       0       0       0       0
  3154 ;;      Temps:          0       0       0       0       0
  3155 ;;      Totals:         0       0       0       0       0
  3156 ;;Total ram usage:        0 bytes
  3157 ;; Hardware stack levels used: 1
  3158 ;; Hardware stack levels required when called: 2
  3159 ;; This function calls:
  3160 ;;		Nothing
  3161 ;; This function is called by:
  3162 ;;		_main
  3163 ;; This function uses a non-reentrant model
  3164 ;;
  3165                           
  3166     050D                     _Timer1_config:	
  3167                           ;psect for function _Timer1_config
  3168                           
  3169     050D                     l1580:	
  3170                           ;incstack = 0
  3171                           ; Regs used in _Timer1_config: [wreg+status,2]
  3172                           
  3173                           
  3174                           ;System/Timer1_driver.c: 52:     PIE1bits.TMR1IE = 0;
  3175     050D  1683               	bsf	3,5	;RP0=1, select bank1
  3176     050E  1303               	bcf	3,6	;RP1=0, select bank1
  3177     050F  100C               	bcf	12,0	;volatile
  3178     0510                     l1582:
  3179                           
  3180                           ;System/Timer1_driver.c: 54:     TMR1H = (uint8_t)(load_count >> 8);
  3181     0510  1283               	bcf	3,5	;RP0=0, select bank0
  3182     0511  1303               	bcf	3,6	;RP1=0, select bank0
  3183     0512  0852               	movf	_load_count+1,w
  3184     0513  008F               	movwf	15	;volatile
  3185     0514                     l1584:
  3186                           
  3187                           ;System/Timer1_driver.c: 55:     TMR1L = (uint8_t)load_count;
  3188     0514  0851               	movf	_load_count,w
  3189     0515  008E               	movwf	14	;volatile
  3190     0516                     l1586:
  3191                           
  3192                           ;System/Timer1_driver.c: 57:     PIR1bits.TMR1IF = 0;
  3193     0516  100C               	bcf	12,0	;volatile
  3194     0517                     l1588:
  3195                           
  3196                           ;System/Timer1_driver.c: 59:     PIE1bits.TMR1IE = 1;
  3197     0517  1683               	bsf	3,5	;RP0=1, select bank1
  3198     0518  1303               	bcf	3,6	;RP1=0, select bank1
  3199     0519  140C               	bsf	12,0	;volatile
  3200     051A                     l1590:
  3201                           
  3202                           ;System/Timer1_driver.c: 61:     INTCONbits.PEIE = 1;
  3203     051A  170B               	bsf	11,6	;volatile
  3204     051B                     l1592:
  3205                           
  3206                           ;System/Timer1_driver.c: 63:     INTCONbits.GIE = 1;
  3207     051B  178B               	bsf	11,7	;volatile
  3208     051C                     l1594:
  3209                           
  3210                           ;System/Timer1_driver.c: 65:     T1CONbits.TMR1ON = 1;
  3211     051C  1283               	bcf	3,5	;RP0=0, select bank0
  3212     051D  1303               	bcf	3,6	;RP1=0, select bank0
  3213     051E  1410               	bsf	16,0	;volatile
  3214     051F                     l332:
  3215     051F  0008               	return
  3216     0520                     __end_of_Timer1_config:
  3217                           
  3218                           	psect	text29
  3219     04C8                     __ptext29:	
  3220 ;; *************** function _PORTE_config *****************
  3221 ;; Defined at:
  3222 ;;		line 190 in file "System/GPIO_driver.c"
  3223 ;; Parameters:    Size  Location     Type
  3224 ;;		None
  3225 ;; Auto vars:     Size  Location     Type
  3226 ;;		None
  3227 ;; Return value:  Size  Location     Type
  3228 ;;                  1    wreg      void 
  3229 ;; Registers used:
  3230 ;;		status,2
  3231 ;; Tracked objects:
  3232 ;;		On entry : 0/0
  3233 ;;		On exit  : 0/0
  3234 ;;		Unchanged: 0/0
  3235 ;; Data sizes:     COMMON   BANK0   BANK1   BANK3   BANK2
  3236 ;;      Params:         0       0       0       0       0
  3237 ;;      Locals:         0       0       0       0       0
  3238 ;;      Temps:          0       0       0       0       0
  3239 ;;      Totals:         0       0       0       0       0
  3240 ;;Total ram usage:        0 bytes
  3241 ;; Hardware stack levels used: 1
  3242 ;; Hardware stack levels required when called: 2
  3243 ;; This function calls:
  3244 ;;		Nothing
  3245 ;; This function is called by:
  3246 ;;		_main
  3247 ;; This function uses a non-reentrant model
  3248 ;;
  3249                           
  3250     04C8                     _PORTE_config:	
  3251                           ;psect for function _PORTE_config
  3252                           
  3253     04C8                     l1558:	
  3254                           ;incstack = 0
  3255                           ; Regs used in _PORTE_config: [status,2]
  3256                           
  3257                           
  3258                           ;System/GPIO_driver.c: 192:     PORTE = 0x00;
  3259     04C8  1283               	bcf	3,5	;RP0=0, select bank0
  3260     04C9  1303               	bcf	3,6	;RP1=0, select bank0
  3261     04CA  0189               	clrf	9	;volatile
  3262     04CB                     l1560:
  3263                           
  3264                           ;System/GPIO_driver.c: 196:     TRISEbits.TRISE0 = 0;
  3265     04CB  1683               	bsf	3,5	;RP0=1, select bank1
  3266     04CC  1303               	bcf	3,6	;RP1=0, select bank1
  3267     04CD  1009               	bcf	9,0	;volatile
  3268     04CE                     l1562:
  3269                           
  3270                           ;System/GPIO_driver.c: 198:     TRISEbits.TRISE1 = 0;
  3271     04CE  1089               	bcf	9,1	;volatile
  3272     04CF                     l1564:
  3273                           
  3274                           ;System/GPIO_driver.c: 200:     TRISEbits.TRISE2 = 0;
  3275     04CF  1109               	bcf	9,2	;volatile
  3276     04D0                     l184:
  3277     04D0  0008               	return
  3278     04D1                     __end_of_PORTE_config:
  3279                           
  3280                           	psect	text30
  3281     04ED                     __ptext30:	
  3282 ;; *************** function _PORTD_config *****************
  3283 ;; Defined at:
  3284 ;;		line 167 in file "System/GPIO_driver.c"
  3285 ;; Parameters:    Size  Location     Type
  3286 ;;		None
  3287 ;; Auto vars:     Size  Location     Type
  3288 ;;		None
  3289 ;; Return value:  Size  Location     Type
  3290 ;;                  1    wreg      void 
  3291 ;; Registers used:
  3292 ;;		status,2
  3293 ;; Tracked objects:
  3294 ;;		On entry : 0/0
  3295 ;;		On exit  : 0/0
  3296 ;;		Unchanged: 0/0
  3297 ;; Data sizes:     COMMON   BANK0   BANK1   BANK3   BANK2
  3298 ;;      Params:         0       0       0       0       0
  3299 ;;      Locals:         0       0       0       0       0
  3300 ;;      Temps:          0       0       0       0       0
  3301 ;;      Totals:         0       0       0       0       0
  3302 ;;Total ram usage:        0 bytes
  3303 ;; Hardware stack levels used: 1
  3304 ;; Hardware stack levels required when called: 2
  3305 ;; This function calls:
  3306 ;;		Nothing
  3307 ;; This function is called by:
  3308 ;;		_main
  3309 ;; This function uses a non-reentrant model
  3310 ;;
  3311                           
  3312     04ED                     _PORTD_config:	
  3313                           ;psect for function _PORTD_config
  3314                           
  3315     04ED                     l1540:	
  3316                           ;incstack = 0
  3317                           ; Regs used in _PORTD_config: [status,2]
  3318                           
  3319                           
  3320                           ;System/GPIO_driver.c: 169:     PORTD = 0x00;
  3321     04ED  1283               	bcf	3,5	;RP0=0, select bank0
  3322     04EE  1303               	bcf	3,6	;RP1=0, select bank0
  3323     04EF  0188               	clrf	8	;volatile
  3324     04F0                     l1542:
  3325                           
  3326                           ;System/GPIO_driver.c: 173:     TRISDbits.TRISD0 = 0;
  3327     04F0  1683               	bsf	3,5	;RP0=1, select bank1
  3328     04F1  1303               	bcf	3,6	;RP1=0, select bank1
  3329     04F2  1008               	bcf	8,0	;volatile
  3330     04F3                     l1544:
  3331                           
  3332                           ;System/GPIO_driver.c: 175:     TRISDbits.TRISD1 = 0;
  3333     04F3  1088               	bcf	8,1	;volatile
  3334     04F4                     l1546:
  3335                           
  3336                           ;System/GPIO_driver.c: 177:     TRISDbits.TRISD2 = 0;
  3337     04F4  1108               	bcf	8,2	;volatile
  3338     04F5                     l1548:
  3339                           
  3340                           ;System/GPIO_driver.c: 179:     TRISDbits.TRISD3 = 0;
  3341     04F5  1188               	bcf	8,3	;volatile
  3342     04F6                     l1550:
  3343                           
  3344                           ;System/GPIO_driver.c: 181:     TRISDbits.TRISD4 = 0;
  3345     04F6  1208               	bcf	8,4	;volatile
  3346     04F7                     l1552:
  3347                           
  3348                           ;System/GPIO_driver.c: 183:     TRISDbits.TRISD5 = 0;
  3349     04F7  1288               	bcf	8,5	;volatile
  3350     04F8                     l1554:
  3351                           
  3352                           ;System/GPIO_driver.c: 185:     TRISDbits.TRISD6 = 0;
  3353     04F8  1308               	bcf	8,6	;volatile
  3354     04F9                     l1556:
  3355                           
  3356                           ;System/GPIO_driver.c: 187:     TRISDbits.TRISD7 = 0;
  3357     04F9  1388               	bcf	8,7	;volatile
  3358     04FA                     l181:
  3359     04FA  0008               	return
  3360     04FB                     __end_of_PORTD_config:
  3361                           
  3362                           	psect	text31
  3363     04BF                     __ptext31:	
  3364 ;; *************** function _PORTC_config *****************
  3365 ;; Defined at:
  3366 ;;		line 140 in file "System/GPIO_driver.c"
  3367 ;; Parameters:    Size  Location     Type
  3368 ;;		None
  3369 ;; Auto vars:     Size  Location     Type
  3370 ;;		None
  3371 ;; Return value:  Size  Location     Type
  3372 ;;                  1    wreg      void 
  3373 ;; Registers used:
  3374 ;;		status,2
  3375 ;; Tracked objects:
  3376 ;;		On entry : 0/0
  3377 ;;		On exit  : 0/0
  3378 ;;		Unchanged: 0/0
  3379 ;; Data sizes:     COMMON   BANK0   BANK1   BANK3   BANK2
  3380 ;;      Params:         0       0       0       0       0
  3381 ;;      Locals:         0       0       0       0       0
  3382 ;;      Temps:          0       0       0       0       0
  3383 ;;      Totals:         0       0       0       0       0
  3384 ;;Total ram usage:        0 bytes
  3385 ;; Hardware stack levels used: 1
  3386 ;; Hardware stack levels required when called: 2
  3387 ;; This function calls:
  3388 ;;		Nothing
  3389 ;; This function is called by:
  3390 ;;		_main
  3391 ;; This function uses a non-reentrant model
  3392 ;;
  3393                           
  3394     04BF                     _PORTC_config:	
  3395                           ;psect for function _PORTC_config
  3396                           
  3397     04BF                     l1532:	
  3398                           ;incstack = 0
  3399                           ; Regs used in _PORTC_config: [status,2]
  3400                           
  3401                           
  3402                           ;System/GPIO_driver.c: 142:     PORTC = 0x00;
  3403     04BF  1283               	bcf	3,5	;RP0=0, select bank0
  3404     04C0  1303               	bcf	3,6	;RP1=0, select bank0
  3405     04C1  0187               	clrf	7	;volatile
  3406     04C2                     l1534:
  3407                           
  3408                           ;System/GPIO_driver.c: 153:     TRISCbits.TRISC0 = 0;
  3409     04C2  1683               	bsf	3,5	;RP0=1, select bank1
  3410     04C3  1303               	bcf	3,6	;RP1=0, select bank1
  3411     04C4  1007               	bcf	7,0	;volatile
  3412     04C5                     l1536:
  3413                           
  3414                           ;System/GPIO_driver.c: 155:     TRISCbits.TRISC1 = 0;
  3415     04C5  1087               	bcf	7,1	;volatile
  3416     04C6                     l1538:
  3417                           
  3418                           ;System/GPIO_driver.c: 157:     TRISCbits.TRISC2 = 0;
  3419     04C6  1107               	bcf	7,2	;volatile
  3420     04C7                     l178:
  3421     04C7  0008               	return
  3422     04C8                     __end_of_PORTC_config:
  3423                           
  3424                           	psect	text32
  3425     04DF                     __ptext32:	
  3426 ;; *************** function _PORTB_config *****************
  3427 ;; Defined at:
  3428 ;;		line 107 in file "System/GPIO_driver.c"
  3429 ;; Parameters:    Size  Location     Type
  3430 ;;		None
  3431 ;; Auto vars:     Size  Location     Type
  3432 ;;		None
  3433 ;; Return value:  Size  Location     Type
  3434 ;;                  1    wreg      void 
  3435 ;; Registers used:
  3436 ;;		None
  3437 ;; Tracked objects:
  3438 ;;		On entry : 0/0
  3439 ;;		On exit  : 0/0
  3440 ;;		Unchanged: 0/0
  3441 ;; Data sizes:     COMMON   BANK0   BANK1   BANK3   BANK2
  3442 ;;      Params:         0       0       0       0       0
  3443 ;;      Locals:         0       0       0       0       0
  3444 ;;      Temps:          0       0       0       0       0
  3445 ;;      Totals:         0       0       0       0       0
  3446 ;;Total ram usage:        0 bytes
  3447 ;; Hardware stack levels used: 1
  3448 ;; Hardware stack levels required when called: 2
  3449 ;; This function calls:
  3450 ;;		Nothing
  3451 ;; This function is called by:
  3452 ;;		_main
  3453 ;; This function uses a non-reentrant model
  3454 ;;
  3455                           
  3456     04DF                     _PORTB_config:	
  3457                           ;psect for function _PORTB_config
  3458                           
  3459     04DF                     l1530:	
  3460                           ;incstack = 0
  3461                           ; Regs used in _PORTB_config: []
  3462                           
  3463                           
  3464                           ;System/GPIO_driver.c: 119:     TRISBbits.TRISB0 = 1;
  3465     04DF  1683               	bsf	3,5	;RP0=1, select bank1
  3466     04E0  1303               	bcf	3,6	;RP1=0, select bank1
  3467     04E1  1406               	bsf	6,0	;volatile
  3468                           
  3469                           ;System/GPIO_driver.c: 120:     TRISBbits.TRISB1 = 1;
  3470     04E2  1486               	bsf	6,1	;volatile
  3471                           
  3472                           ;System/GPIO_driver.c: 121:     TRISBbits.TRISB2 = 1;
  3473     04E3  1506               	bsf	6,2	;volatile
  3474                           
  3475                           ;System/GPIO_driver.c: 122:     TRISBbits.TRISB3 = 1;
  3476     04E4  1586               	bsf	6,3	;volatile
  3477                           
  3478                           ;System/GPIO_driver.c: 126:     TRISBbits.TRISB4 = 1;
  3479     04E5  1606               	bsf	6,4	;volatile
  3480                           
  3481                           ;System/GPIO_driver.c: 127:     TRISBbits.TRISB5 = 1;
  3482     04E6  1686               	bsf	6,5	;volatile
  3483                           
  3484                           ;System/GPIO_driver.c: 128:     TRISBbits.TRISB6 = 1;
  3485     04E7  1706               	bsf	6,6	;volatile
  3486                           
  3487                           ;System/GPIO_driver.c: 129:     TRISBbits.TRISB7 = 1;
  3488     04E8  1786               	bsf	6,7	;volatile
  3489                           
  3490                           ;System/GPIO_driver.c: 132:     INTCONbits.RBIF = 0;
  3491     04E9  100B               	bcf	11,0	;volatile
  3492                           
  3493                           ;System/GPIO_driver.c: 134:     INTCONbits.RBIE = 0;
  3494     04EA  118B               	bcf	11,3	;volatile
  3495                           
  3496                           ;System/GPIO_driver.c: 136:     INTCONbits.GIE = 0;
  3497     04EB  138B               	bcf	11,7	;volatile
  3498     04EC                     l175:
  3499     04EC  0008               	return
  3500     04ED                     __end_of_PORTB_config:
  3501                           
  3502                           	psect	text33
  3503     04D1                     __ptext33:	
  3504 ;; *************** function _PORTA_config *****************
  3505 ;; Defined at:
  3506 ;;		line 62 in file "System/GPIO_driver.c"
  3507 ;; Parameters:    Size  Location     Type
  3508 ;;		None
  3509 ;; Auto vars:     Size  Location     Type
  3510 ;;		None
  3511 ;; Return value:  Size  Location     Type
  3512 ;;                  1    wreg      void 
  3513 ;; Registers used:
  3514 ;;		wreg, status,2
  3515 ;; Tracked objects:
  3516 ;;		On entry : 0/0
  3517 ;;		On exit  : 0/0
  3518 ;;		Unchanged: 0/0
  3519 ;; Data sizes:     COMMON   BANK0   BANK1   BANK3   BANK2
  3520 ;;      Params:         0       0       0       0       0
  3521 ;;      Locals:         0       0       0       0       0
  3522 ;;      Temps:          0       0       0       0       0
  3523 ;;      Totals:         0       0       0       0       0
  3524 ;;Total ram usage:        0 bytes
  3525 ;; Hardware stack levels used: 1
  3526 ;; Hardware stack levels required when called: 2
  3527 ;; This function calls:
  3528 ;;		Nothing
  3529 ;; This function is called by:
  3530 ;;		_main
  3531 ;; This function uses a non-reentrant model
  3532 ;;
  3533                           
  3534     04D1                     _PORTA_config:	
  3535                           ;psect for function _PORTA_config
  3536                           
  3537     04D1                     l1514:	
  3538                           ;incstack = 0
  3539                           ; Regs used in _PORTA_config: [wreg+status,2]
  3540                           
  3541                           
  3542                           ;System/GPIO_driver.c: 67:     PORTA = 0x00;
  3543     04D1  1283               	bcf	3,5	;RP0=0, select bank0
  3544     04D2  1303               	bcf	3,6	;RP1=0, select bank0
  3545     04D3  0185               	clrf	5	;volatile
  3546     04D4                     l1516:
  3547                           
  3548                           ;System/GPIO_driver.c: 76:     TRISAbits.TRISA0 = 1;
  3549     04D4  1683               	bsf	3,5	;RP0=1, select bank1
  3550     04D5  1303               	bcf	3,6	;RP1=0, select bank1
  3551     04D6  1405               	bsf	5,0	;volatile
  3552     04D7                     l1518:
  3553                           
  3554                           ;System/GPIO_driver.c: 78:     TRISAbits.TRISA1 = 1;
  3555     04D7  1485               	bsf	5,1	;volatile
  3556     04D8                     l1520:
  3557                           
  3558                           ;System/GPIO_driver.c: 80:     TRISAbits.TRISA2 = 1;
  3559     04D8  1505               	bsf	5,2	;volatile
  3560     04D9                     l1522:
  3561                           
  3562                           ;System/GPIO_driver.c: 82:     TRISAbits.TRISA3 = 1;
  3563     04D9  1585               	bsf	5,3	;volatile
  3564     04DA                     l1524:
  3565                           
  3566                           ;System/GPIO_driver.c: 84:     TRISAbits.TRISA4 = 0;
  3567     04DA  1205               	bcf	5,4	;volatile
  3568     04DB                     l1526:
  3569                           
  3570                           ;System/GPIO_driver.c: 86:     TRISAbits.TRISA5 = 0;
  3571     04DB  1285               	bcf	5,5	;volatile
  3572     04DC                     l1528:
  3573                           
  3574                           ;System/GPIO_driver.c: 90:     ADCON1 = 0x06;
  3575     04DC  3006               	movlw	6
  3576     04DD  009F               	movwf	31	;volatile
  3577     04DE                     l172:
  3578     04DE  0008               	return
  3579     04DF                     __end_of_PORTA_config:
  3580                           
  3581                           	psect	text34
  3582     0549                     __ptext34:	
  3583 ;; *************** function _isr *****************
  3584 ;; Defined at:
  3585 ;;		line 39 in file "main.c"
  3586 ;; Parameters:    Size  Location     Type
  3587 ;;		None
  3588 ;; Auto vars:     Size  Location     Type
  3589 ;;		None
  3590 ;; Return value:  Size  Location     Type
  3591 ;;                  1    wreg      void 
  3592 ;; Registers used:
  3593 ;;		wreg, status,2, status,0, pclath, cstack
  3594 ;; Tracked objects:
  3595 ;;		On entry : 0/0
  3596 ;;		On exit  : 0/0
  3597 ;;		Unchanged: 0/0
  3598 ;; Data sizes:     COMMON   BANK0   BANK1   BANK3   BANK2
  3599 ;;      Params:         0       0       0       0       0
  3600 ;;      Locals:         0       0       0       0       0
  3601 ;;      Temps:          2       0       0       0       0
  3602 ;;      Totals:         2       0       0       0       0
  3603 ;;Total ram usage:        2 bytes
  3604 ;; Hardware stack levels used: 1
  3605 ;; Hardware stack levels required when called: 1
  3606 ;; This function calls:
  3607 ;;		_PORTB_int_isr
  3608 ;;		_Timer0_isr
  3609 ;;		_Timer1_isr
  3610 ;; This function is called by:
  3611 ;;		Interrupt level 1
  3612 ;; This function uses a non-reentrant model
  3613 ;;
  3614                           
  3615     0549                     _isr:	
  3616                           ;psect for function _isr
  3617                           
  3618     0549                     i1l1614:
  3619                           
  3620                           ;main.c: 41:     PORTA_config();
  3621     0549  120A  118A  240E  120A  118A  	fcall	_Timer0_isr
  3622     054E                     i1l1616:
  3623                           
  3624                           ;main.c: 42:     PORTB_config();
  3625     054E  120A  118A  24B6  120A  118A  	fcall	_PORTB_int_isr
  3626     0553                     i1l1618:
  3627                           
  3628                           ;main.c: 44:     PORTD_config();
  3629     0553  120A  118A  2533  120A  118A  	fcall	_Timer1_isr
  3630     0558                     i1l284:
  3631     0558  0872               	movf	??_isr+1,w
  3632     0559  008A               	movwf	10
  3633     055A  0E71               	swapf	??_isr,w
  3634     055B  0083               	movwf	3
  3635     055C  0EFE               	swapf	btemp,f
  3636     055D  0E7E               	swapf	btemp,w
  3637     055E  0009               	retfie
  3638     055F                     __end_of_isr:
  3639                           
  3640                           	psect	intentry
  3641     0004                     __pintentry:	
  3642                           ;incstack = 0
  3643                           ; Regs used in _isr: [wreg+status,2+status,0+pclath+cstack]
  3644                           
  3645     0004                     interrupt_function:
  3646     007E                     saved_w	set	btemp
  3647     0004  00FE               	movwf	btemp
  3648     0005  0E03               	swapf	3,w
  3649     0006  00F1               	movwf	??_isr
  3650     0007  080A               	movf	10,w
  3651     0008  00F2               	movwf	??_isr+1
  3652     0009  120A  118A  2D49   	ljmp	_isr
  3653                           
  3654                           	psect	text35
  3655     0533                     __ptext35:	
  3656 ;; *************** function _Timer1_isr *****************
  3657 ;; Defined at:
  3658 ;;		line 72 in file "System/Timer1_driver.c"
  3659 ;; Parameters:    Size  Location     Type
  3660 ;;		None
  3661 ;; Auto vars:     Size  Location     Type
  3662 ;;		None
  3663 ;; Return value:  Size  Location     Type
  3664 ;;                  1    wreg      void 
  3665 ;; Registers used:
  3666 ;;		wreg, status,2
  3667 ;; Tracked objects:
  3668 ;;		On entry : 0/0
  3669 ;;		On exit  : 0/0
  3670 ;;		Unchanged: 0/0
  3671 ;; Data sizes:     COMMON   BANK0   BANK1   BANK3   BANK2
  3672 ;;      Params:         0       0       0       0       0
  3673 ;;      Locals:         0       0       0       0       0
  3674 ;;      Temps:          0       0       0       0       0
  3675 ;;      Totals:         0       0       0       0       0
  3676 ;;Total ram usage:        0 bytes
  3677 ;; Hardware stack levels used: 1
  3678 ;; This function calls:
  3679 ;;		Nothing
  3680 ;; This function is called by:
  3681 ;;		_isr
  3682 ;; This function uses a non-reentrant model
  3683 ;;
  3684                           
  3685     0533                     _Timer1_isr:	
  3686                           ;psect for function _Timer1_isr
  3687                           
  3688     0533                     i1l1566:	
  3689                           ;incstack = 0
  3690                           ; Regs used in _Timer1_isr: [wreg+status,2]
  3691                           
  3692                           
  3693                           ;System/Timer1_driver.c: 75:     if (PIR1bits.TMR1IF == 1){
  3694     0533  1283               	bcf	3,5	;RP0=0, select bank0
  3695     0534  1303               	bcf	3,6	;RP1=0, select bank0
  3696     0535  1C0C               	btfss	12,0	;volatile
  3697     0536  2D38               	goto	u51_21
  3698     0537  2D39               	goto	u51_20
  3699     0538                     u51_21:
  3700     0538  2D48               	goto	i1l336
  3701     0539                     u51_20:
  3702     0539                     i1l1568:
  3703                           
  3704                           ;System/Timer1_driver.c: 77:         PIR1bits.TMR1IF = 0;
  3705     0539  100C               	bcf	12,0	;volatile
  3706                           
  3707                           ;System/Timer1_driver.c: 79:         T1CONbits.TMR1ON = 0;
  3708     053A  1010               	bcf	16,0	;volatile
  3709     053B                     i1l1570:
  3710                           
  3711                           ;System/Timer1_driver.c: 81:         TMR1H = (uint8_t)(load_count >> 8);
  3712     053B  0852               	movf	_load_count+1,w
  3713     053C  008F               	movwf	15	;volatile
  3714     053D                     i1l1572:
  3715                           
  3716                           ;System/Timer1_driver.c: 82:         TMR1L = (uint8_t)load_count;
  3717     053D  0851               	movf	_load_count,w
  3718     053E  008E               	movwf	14	;volatile
  3719     053F                     i1l1574:
  3720                           
  3721                           ;System/Timer1_driver.c: 84:         T1CONbits.TMR1ON = 1;
  3722     053F  1410               	bsf	16,0	;volatile
  3723     0540                     i1l1576:
  3724                           
  3725                           ;System/Timer1_driver.c: 87:         timer_increment_flg = 1;
  3726     0540  3001               	movlw	1
  3727     0541  00B6               	movwf	_timer_increment_flg	;volatile
  3728     0542                     i1l1578:
  3729                           
  3730                           ;System/Timer1_driver.c: 88:         global_time++;
  3731     0542  3001               	movlw	1
  3732     0543  07B4               	addwf	_global_time,f	;volatile
  3733     0544  1803               	skipnc
  3734     0545  0AB5               	incf	_global_time+1,f	;volatile
  3735     0546  3000               	movlw	0
  3736     0547  07B5               	addwf	_global_time+1,f	;volatile
  3737     0548                     i1l336:
  3738     0548  0008               	return
  3739     0549                     __end_of_Timer1_isr:
  3740                           
  3741                           	psect	text36
  3742     040E                     __ptext36:	
  3743 ;; *************** function _Timer0_isr *****************
  3744 ;; Defined at:
  3745 ;;		line 60 in file "System/Timer0_driver.c"
  3746 ;; Parameters:    Size  Location     Type
  3747 ;;		None
  3748 ;; Auto vars:     Size  Location     Type
  3749 ;;		None
  3750 ;; Return value:  Size  Location     Type
  3751 ;;                  1    wreg      void 
  3752 ;; Registers used:
  3753 ;;		None
  3754 ;; Tracked objects:
  3755 ;;		On entry : 0/0
  3756 ;;		On exit  : 0/0
  3757 ;;		Unchanged: 0/0
  3758 ;; Data sizes:     COMMON   BANK0   BANK1   BANK3   BANK2
  3759 ;;      Params:         0       0       0       0       0
  3760 ;;      Locals:         0       0       0       0       0
  3761 ;;      Temps:          0       0       0       0       0
  3762 ;;      Totals:         0       0       0       0       0
  3763 ;;Total ram usage:        0 bytes
  3764 ;; Hardware stack levels used: 1
  3765 ;; This function calls:
  3766 ;;		Nothing
  3767 ;; This function is called by:
  3768 ;;		_isr
  3769 ;; This function uses a non-reentrant model
  3770 ;;
  3771                           
  3772     040E                     _Timer0_isr:	
  3773                           ;psect for function _Timer0_isr
  3774                           
  3775     040E                     i1l1172:	
  3776                           ;incstack = 0
  3777                           ; Regs used in _Timer0_isr: []
  3778                           
  3779                           
  3780                           ;System/Timer0_driver.c: 62:     INTCONbits.T0IF = 0;
  3781     040E  110B               	bcf	11,2	;volatile
  3782     040F                     i1l374:
  3783     040F  0008               	return
  3784     0410                     __end_of_Timer0_isr:
  3785                           
  3786                           	psect	text37
  3787     04B6                     __ptext37:	
  3788 ;; *************** function _PORTB_int_isr *****************
  3789 ;; Defined at:
  3790 ;;		line 281 in file "System/GPIO_driver.c"
  3791 ;; Parameters:    Size  Location     Type
  3792 ;;		None
  3793 ;; Auto vars:     Size  Location     Type
  3794 ;;  dummy_read      1    0        unsigned char 
  3795 ;; Return value:  Size  Location     Type
  3796 ;;                  1    wreg      void 
  3797 ;; Registers used:
  3798 ;;		wreg, status,2
  3799 ;; Tracked objects:
  3800 ;;		On entry : 0/0
  3801 ;;		On exit  : 0/0
  3802 ;;		Unchanged: 0/0
  3803 ;; Data sizes:     COMMON   BANK0   BANK1   BANK3   BANK2
  3804 ;;      Params:         0       0       0       0       0
  3805 ;;      Locals:         0       0       0       0       0
  3806 ;;      Temps:          0       0       0       0       0
  3807 ;;      Totals:         0       0       0       0       0
  3808 ;;Total ram usage:        0 bytes
  3809 ;; Hardware stack levels used: 1
  3810 ;; This function calls:
  3811 ;;		Nothing
  3812 ;; This function is called by:
  3813 ;;		_isr
  3814 ;; This function uses a non-reentrant model
  3815 ;;
  3816                           
  3817     04B6                     _PORTB_int_isr:	
  3818                           ;psect for function _PORTB_int_isr
  3819                           
  3820     04B6                     i1l1164:	
  3821                           ;incstack = 0
  3822                           ; Regs used in _PORTB_int_isr: [wreg+status,2]
  3823                           
  3824     04B6                     i1l1166:
  3825                           
  3826                           ;System/GPIO_driver.c: 284:     if (INTCONbits.RBIF == 1) {
  3827     04B6  1C0B               	btfss	11,0	;volatile
  3828     04B7  2CB9               	goto	u22_21
  3829     04B8  2CBA               	goto	u22_20
  3830     04B9                     u22_21:
  3831     04B9  2CBE               	goto	i1l233
  3832     04BA                     u22_20:
  3833     04BA                     i1l1168:
  3834     04BA  1283               	bcf	3,5	;RP0=0, select bank0
  3835     04BB  1303               	bcf	3,6	;RP1=0, select bank0
  3836     04BC  0806               	movf	6,w	;volatile
  3837     04BD                     i1l1170:
  3838                           
  3839                           ;System/GPIO_driver.c: 289:         INTCONbits.RBIF = 0;
  3840     04BD  100B               	bcf	11,0	;volatile
  3841     04BE                     i1l233:
  3842     04BE  0008               	return
  3843     04BF                     __end_of_PORTB_int_isr:
  3844     007E                     btemp	set	126	;btemp
  3845     007E                     wtemp0	set	126
  3846                           
  3847                           	psect	config
  3848                           
  3849                           ;Config register CONFIG @ 0x2007
  3850                           ;	Oscillator Selection bits
  3851                           ;	FOSC = HS, HS oscillator
  3852                           ;	Watchdog Timer Enable bit
  3853                           ;	WDTE = OFF, WDT disabled
  3854                           ;	Power-up Timer Enable bit
  3855                           ;	PWRTE = OFF, PWRT disabled
  3856                           ;	Brown-out Reset Enable bit
  3857                           ;	BOREN = ON, BOR enabled
  3858                           ;	Low-Voltage (Single-Supply) In-Circuit Serial Programming Enable bit
  3859                           ;	LVP = OFF, RB3 is digital I/O, HV on MCLR must be used for programming
  3860                           ;	Data EEPROM Memory Code Protection bit
  3861                           ;	CPD = OFF, Data EEPROM code protection off
  3862                           ;	Flash Program Memory Write Enable bits
  3863                           ;	WRT = OFF, Write protection off; all program memory may be written to by EECON control
  3864                           ;	In-Circuit Debugger Mode bit
  3865                           ;	DEBUG = 0x1, unprogrammed default
  3866                           ;	Flash Program Memory Code Protection bit
  3867                           ;	CP = OFF, Code protection off
  3868     2007                     	org	8199
  3869     2007  3F7A               	dw	16250

Data Sizes:
    Strings     0
    Constant    0
    Data        20
    BSS         51
    Persistent  2
    Stack       0

Auto Spaces:
    Space          Size  Autos    Used
    COMMON           13      7      11
    BANK0            80      2      71
    BANK1            80      0       0
    BANK3            85      0       0
    BANK2            96      0       0

Pointer List with Targets:

    display_multiplexer_set_green_array@data_buffer	PTR unsigned char  size(1) Largest target is 16
		 -> blank_array(BANK0[16]), 

    display_multiplexer_set_red_array@data_buffer	PTR unsigned char  size(1) Largest target is 16
		 -> k_array(BANK0[16]), 

    green_array_1	PTR unsigned char  size(1) Largest target is 16
		 -> blank_array(BANK0[16]), NULL(NULL[0]), 

    green_array_1_next	PTR unsigned char  size(1) Largest target is 16
		 -> blank_array(BANK0[16]), NULL(NULL[0]), 

    red_array_1	PTR unsigned char  size(1) Largest target is 16
		 -> k_array(BANK0[16]), NULL(NULL[0]), 

    red_array_1_next	PTR unsigned char  size(1) Largest target is 16
		 -> k_array(BANK0[16]), NULL(NULL[0]), 


Critical Paths under _main in COMMON

    _display_multiplexer_task->_ms_timer_get
    _set_row_pattern->_set_PORTD_pins
    _set_reset_matrix->_set_PORTE_pins
    _set_clk_4->_set_PORTC_pins
    _set_clk_3->_set_PORTA_pins
    _set_clk_2->_set_PORTE_pins
    _set_clk_1->_set_PORTE_pins
    _reset_reset_matrix->_clear_PORTE_pins
    _reset_clk_4->_clear_PORTC_pins
    _reset_clk_3->_clear_PORTA_pins
    _reset_clk_2->_clear_PORTE_pins
    _reset_clk_1->_clear_PORTE_pins

Critical Paths under _isr in COMMON

    None.

Critical Paths under _main in BANK0

    _main->_display_multiplexer_task
    _display_multiplexer_task->_ms_timer_get

Critical Paths under _isr in BANK0

    None.

Critical Paths under _main in BANK1

    None.

Critical Paths under _isr in BANK1

    None.

Critical Paths under _main in BANK3

    None.

Critical Paths under _isr in BANK3

    None.

Critical Paths under _main in BANK2

    None.

Critical Paths under _isr in BANK2

    None.

Call Graph Tables:

 ---------------------------------------------------------------------------------
 (Depth) Function   	        Calls       Base Space   Used Autos Params    Refs
 ---------------------------------------------------------------------------------
 (0) _main                                                 0     0      0     585
                       _PORTA_config
                       _PORTB_config
                       _PORTC_config
                       _PORTD_config
                       _PORTE_config
                      _Timer1_config
                           _button_A
                           _button_B
_display_multiplexer_set_green_array
  _display_multiplexer_set_red_array
           _display_multiplexer_task
                      _ms_timer_task
                        _reset_clk_1
                        _reset_clk_2
                        _reset_clk_3
                        _reset_clk_4
 ---------------------------------------------------------------------------------
 (1) _ms_timer_task                                        3     3      0      47
                                              2 COMMON     3     3      0
 ---------------------------------------------------------------------------------
 (1) _display_multiplexer_task                             1     1      0     340
                                              1 BANK0      1     1      0
                       _ms_timer_get
                      _ms_timer_init
                     _ms_timer_reset
                        _reset_clk_1
                        _reset_clk_2
                        _reset_clk_3
                        _reset_clk_4
                 _reset_reset_matrix
                          _set_clk_1
                          _set_clk_2
                          _set_clk_3
                          _set_clk_4
                   _set_reset_matrix
                    _set_row_pattern
 ---------------------------------------------------------------------------------
 (2) _set_row_pattern                                      1     1      0      44
                                              3 COMMON     1     1      0
                     _set_PORTD_pins
 ---------------------------------------------------------------------------------
 (3) _set_PORTD_pins                                       1     1      0      22
                                              2 COMMON     1     1      0
 ---------------------------------------------------------------------------------
 (2) _set_reset_matrix                                     0     0      0      22
                     _set_PORTE_pins
 ---------------------------------------------------------------------------------
 (2) _set_clk_4                                            0     0      0      22
                     _set_PORTC_pins
 ---------------------------------------------------------------------------------
 (3) _set_PORTC_pins                                       1     1      0      22
                                              2 COMMON     1     1      0
 ---------------------------------------------------------------------------------
 (2) _set_clk_3                                            0     0      0      22
                     _set_PORTA_pins
 ---------------------------------------------------------------------------------
 (3) _set_PORTA_pins                                       1     1      0      22
                                              2 COMMON     1     1      0
 ---------------------------------------------------------------------------------
 (2) _set_clk_2                                            0     0      0      22
                     _set_PORTE_pins
 ---------------------------------------------------------------------------------
 (2) _set_clk_1                                            0     0      0      22
                     _set_PORTE_pins
 ---------------------------------------------------------------------------------
 (3) _set_PORTE_pins                                       1     1      0      22
                                              2 COMMON     1     1      0
 ---------------------------------------------------------------------------------
 (2) _reset_reset_matrix                                   0     0      0      22
                   _clear_PORTE_pins
 ---------------------------------------------------------------------------------
 (1) _reset_clk_4                                          0     0      0      22
                   _clear_PORTC_pins
 ---------------------------------------------------------------------------------
 (2) _clear_PORTC_pins                                     1     1      0      22
                                              2 COMMON     1     1      0
 ---------------------------------------------------------------------------------
 (1) _reset_clk_3                                          0     0      0      22
                   _clear_PORTA_pins
 ---------------------------------------------------------------------------------
 (2) _clear_PORTA_pins                                     1     1      0      22
                                              2 COMMON     1     1      0
 ---------------------------------------------------------------------------------
 (1) _reset_clk_2                                          0     0      0      22
                   _clear_PORTE_pins
 ---------------------------------------------------------------------------------
 (1) _reset_clk_1                                          0     0      0      22
                   _clear_PORTE_pins
 ---------------------------------------------------------------------------------
 (2) _clear_PORTE_pins                                     1     1      0      22
                                              2 COMMON     1     1      0
 ---------------------------------------------------------------------------------
 (2) _ms_timer_reset                                       3     3      0      22
                                              2 COMMON     3     3      0
 ---------------------------------------------------------------------------------
 (2) _ms_timer_init                                        3     3      0      23
                                              2 COMMON     3     3      0
 ---------------------------------------------------------------------------------
 (2) _ms_timer_get                                         6     2      4      31
                                              2 COMMON     5     1      4
                                              0 BANK0      1     1      0
 ---------------------------------------------------------------------------------
 (1) _display_multiplexer_set_red_array                    1     1      0      55
                                              2 COMMON     1     1      0
 ---------------------------------------------------------------------------------
 (1) _display_multiplexer_set_green_array                  1     1      0      55
                                              2 COMMON     1     1      0
 ---------------------------------------------------------------------------------
 (1) _button_B                                             1     1      0       0
                                              2 COMMON     1     1      0
 ---------------------------------------------------------------------------------
 (1) _button_A                                             0     0      0       0
 ---------------------------------------------------------------------------------
 (1) _Timer1_config                                        0     0      0       0
 ---------------------------------------------------------------------------------
 (1) _PORTE_config                                         0     0      0       0
 ---------------------------------------------------------------------------------
 (1) _PORTD_config                                         0     0      0       0
 ---------------------------------------------------------------------------------
 (1) _PORTC_config                                         0     0      0       0
 ---------------------------------------------------------------------------------
 (1) _PORTB_config                                         0     0      0       0
 ---------------------------------------------------------------------------------
 (1) _PORTA_config                                         0     0      0       0
 ---------------------------------------------------------------------------------
 Estimated maximum stack depth 3
 ---------------------------------------------------------------------------------
 (Depth) Function   	        Calls       Base Space   Used Autos Params    Refs
 ---------------------------------------------------------------------------------
 (4) _isr                                                  2     2      0       0
                                              0 COMMON     2     2      0
                      _PORTB_int_isr
                         _Timer0_isr
                         _Timer1_isr
 ---------------------------------------------------------------------------------
 (5) _Timer1_isr                                           0     0      0       0
 ---------------------------------------------------------------------------------
 (5) _Timer0_isr                                           0     0      0       0
 ---------------------------------------------------------------------------------
 (5) _PORTB_int_isr                                        1     1      0       0
 ---------------------------------------------------------------------------------
 Estimated maximum stack depth 5
 ---------------------------------------------------------------------------------

 Call Graph Graphs:

 _main (ROOT)
   _PORTA_config
   _PORTB_config
   _PORTC_config
   _PORTD_config
   _PORTE_config
   _Timer1_config
   _button_A
   _button_B
   _display_multiplexer_set_green_array
   _display_multiplexer_set_red_array
   _display_multiplexer_task
     _ms_timer_get
     _ms_timer_init
     _ms_timer_reset
     _reset_clk_1
       _clear_PORTE_pins
     _reset_clk_2
       _clear_PORTE_pins
     _reset_clk_3
       _clear_PORTA_pins
     _reset_clk_4
       _clear_PORTC_pins
     _reset_reset_matrix
       _clear_PORTE_pins
     _set_clk_1
       _set_PORTE_pins
     _set_clk_2
       _set_PORTE_pins
     _set_clk_3
       _set_PORTA_pins
     _set_clk_4
       _set_PORTC_pins
     _set_reset_matrix
       _set_PORTE_pins
     _set_row_pattern
       _set_PORTD_pins
   _ms_timer_task
   _reset_clk_1
   _reset_clk_2
   _reset_clk_3
   _reset_clk_4

 _isr (ROOT)
   _PORTB_int_isr
   _Timer0_isr
   _Timer1_isr

 Address spaces:
Name               Size   Autos  Total    Cost      Usage
BANK3               55      0       0       9        0.0%
BITBANK3            55      0       0       8        0.0%
SFR3                 0      0       0       4        0.0%
BITSFR3              0      0       0       4        0.0%
BANK2               60      0       0      11        0.0%
BITBANK2            60      0       0      10        0.0%
SFR2                 0      0       0       5        0.0%
BITSFR2              0      0       0       5        0.0%
BANK1               50      0       0       7        0.0%
BITBANK1            50      0       0       6        0.0%
SFR1                 0      0       0       2        0.0%
BITSFR1              0      0       0       2        0.0%
BANK0               50      2      47       5       88.8%
BITBANK0            50      0       0       4        0.0%
SFR0                 0      0       0       1        0.0%
BITSFR0              0      0       0       1        0.0%
COMMON               D      7       B       1       84.6%
BITCOMMON            D      0       0       0        0.0%
CODE                 0      0       0       0        0.0%
DATA                 0      0      52      12        0.0%
ABS                  0      0      52       3        0.0%
NULL                 0      0       0       0        0.0%
STACK                0      0       0       2        0.0%
EEDATA             100      0       0       0        0.0%


Microchip Technology PIC Macro Assembler V2.46 build 20240104201356 
Symbol Table                                                                                   Wed Apr 24 01:38:45 2024

                     clear_PORTE_pins@bit_field 0073                                               pc 0002  
                                            l20 042F                                              l17 0416  
                                            l70 041C                                              l82 0475  
                                            l67 0422                                              l91 0436  
                                            l85 0452                                              l94 0460  
                                            l79 04AD                                              l88 0459  
                                            l97 043D                                              fsr 0004  
                                           l100 0467                                             l103 0444  
                                           l106 046E                                             l109 044B  
                                           l205 04A5                                             l214 0428  
                                           l223 0495                                             l119 077B  
                                           l208 048D                                             l226 047D  
                                           l139 07D7                                             l172 04DE  
                                           l332 051F                                             l181 04FA  
                                           l350 0575                                             l190 0485  
                                           l175 04EC                                             l184 04D0  
                                           l360 05F5                                             l353 0591  
                                           l178 04C7                                             l346 05B6  
                                           l187 049D                                             u300 0598  
                                           u301 0597                                             u315 059B  
                                           u325 0563                                             u600 06E6  
                                           u520 05BE                                             u601 06E5  
                                           u521 05BD                                             u610 0718  
                                           u611 0717                                             u700 0763  
                                           u620 071E                                             u540 05F5  
                                           u701 0762                                             u621 071D  
                                           u541 05F4                                             u710 0769  
                                           u630 072A                                             u711 0768  
                                           u631 0729                                             u535 05C5  
                                           u720 0775                                             u640 0731  
                                           u721 0774                                             u641 0730  
                                           u545 05F1                                             u730 0797  
                                           u650 0737                                             u731 0796  
                                           u651 0736                                             u740 07B7  
                                           u660 0743                                             u580 06D0  
                                           u741 07B6                                             u733 0793  
                                           u661 0742                                             u581 06CF  
                                           u670 074A                                             u590 06E2  
                                           u750 0648                                             u575 057C  
                                           u671 0749                                             u591 06E1  
                                           u583 06CC                                             u751 0647  
                                           u680 0750                                             u760 0656  
                                           u681 074F                                             u761 0655  
                                           u690 075C                                             u691 075B  
                              _red_array_1_next 0064                                             _isr 0549  
                                           fsr0 0004                                             indf 0000  
                    __end_of_reset_reset_matrix 0453                                  ms_timer_task@i 0074  
                                _set_PORTA_pins 0496                                  _set_PORTC_pins 049E  
                                _set_PORTD_pins 0423                                  _set_PORTE_pins 048E  
                                          l1320 0424                                            l1322 048F  
                                          l1330 049F                                            l1324 0477  
                                          l1332 0487                                            l1340 0453  
                                          l1342 0430                                            l1350 043E  
                                          l1326 0497                                            l1334 04A7  
                                          l1520 04D8                                            l1360 05AD  
                                          l1328 047F                                            l1344 045A  
                                          l1352 0468                                            l1336 046F  
                                          l1600 05BE                                            l1522 04D9  
                                          l1514 04D1                                            l1530 04DF  
                                          l1362 05AF                                            l1370 05B5  
                                          l1346 0437                                            l1354 0445  
                                          l1338 044C                                            l1602 05C2  
                                          l1524 04DA                                            l1516 04D4  
                                          l1532 04BF                                            l1540 04ED  
                                          l1380 0412                                            l1364 05B3  
                                          l1356 0592                                            l1348 0461  
                                          l1700 06E2                                            l1604 05E2  
                                          l1526 04DB                                            l1518 04D7  
                                          l1534 04C2                                            l1550 04F6  
                                          l1542 04F0                                            l1390 0418  
                                          l1358 0598                                            l1374 0560  
                                          l1710 0713                                            l1702 06E6  
                                          l1606 05E8                                            l1528 04DC  
                                          l1536 04C5                                            l1552 04F7  
                                          l1544 04F3                                            l1560 04CB  
                                          l1384 0429                                            l1720 072B  
                                          l1712 0718                                            l1704 06F6  
                                          l1800 063E                                            l1538 04C6  
                                          l1554 04F8                                            l1546 04F4  
                                          l1562 04CE                                            l1730 0744  
                                          l1722 0731                                            l1714 071E  
                                          l1706 06FD                                            l1802 0648  
                                          l1556 04F9                                            l1548 04F5  
                                          l1564 04CF                                            l1580 050D  
                                          l1388 041E                                            l1652 0579  
                                          l1740 075D                                            l1732 074A  
                                          l1724 0737                                            l1716 0724  
                                          l1708 070D                                            l1660 066B  
                                          l1804 064C                                            l1558 04C8  
                                          l1590 051A                                            l1582 0510  
                                          l1750 0776                                            l1742 0763  
                                          l1734 0750                                            l1726 073D  
                                          l1670 0684                                            l1662 0670  
                                          l1806 0656                                            l1592 051B  
                                          l1584 0514                                            l1760 0780  
                                          l1744 0769                                            l1736 0756  
                                          l1680 0697                                            l1672 0689  
                                          l1664 0675                                            l1656 065E  
                                          l1594 051C                                            l1586 0516  
                                          l1770 07BB                                            l1762 0797  
                                          l1746 076F                                            l1690 06B3  
                                          l1682 0699                                            l1674 068D  
                                          l1666 067A                                            l1658 065F  
                                          l1588 0517                                            l1772 07BD  
                                          l1764 07B0                                            l1684 06A3  
                                          l1676 0692                                            l1668 067F  
                                          l1596 05B7                                            l1780 05FB  
                                          l1766 07B7                                            l1694 06B9  
                                          l1686 06A9                                            l1678 0695  
                                          l1598 05B7                                            l1790 0614  
                                          l1782 0600                                            l1768 07B8  
                                          l1696 06D0                                            l1688 06AD  
                                          l1776 07C4                                            l1792 0619  
                                          l1784 0605                                            l1698 06DC  
                                          l1794 061E                                            l1786 060A  
                                          l1778 05F6                                            l1796 0634  
                                          l1788 060F                                            l1798 0639  
                                          ?_isr 0071                                 _last_timer_hndl 0078  
                                          _TMR0 0001                                            _main 05F6  
                                          btemp 007E                                            start 000C  
                                         ??_isr 0071                                           ?_main 0071  
                    ??_display_multiplexer_task 0066                                           i1l233 04BE  
                                         i1l336 0548                                           i1l284 0558  
                                         i1l374 040F                                           u22_20 04BA  
                                         u22_21 04B9                                           _TMR1H 000F  
                                         _TMR1L 000E                                           u51_20 0539  
                                         u51_21 0538                                           _PORTA 0005  
                                         _PORTB 0006                                           _PORTC 0007  
                                         _PORTD 0008                                           _PORTE 0009  
                        __end_of_set_PORTA_pins 049E                          __end_of_set_PORTC_pins 04A6  
                        __end_of_set_PORTD_pins 0429                          __end_of_set_PORTE_pins 0496  
                      __end_of_clear_PORTA_pins 0486                        __end_of_clear_PORTC_pins 048E  
                      __end_of_clear_PORTE_pins 047E                                           pclath 000A  
                                         status 0003                                           wtemp0 007E  
                         __end_of_Timer1_config 0520                                 __initialization 07D8  
                                  __end_of_main 065E  display_multiplexer_set_green_array@data_buffer 0073  
                              _set_reset_matrix 046F                                   _green_array_1 003E  
                                        ??_main 0078                           __end_of_ms_timer_init 05B7  
                         __end_of_ms_timer_task 05F6                                 _set_row_pattern 04A6  
                               ?_set_PORTA_pins 0071                                 ?_set_PORTC_pins 0071  
                               ?_set_PORTD_pins 0071                                 ?_set_PORTE_pins 0071  
                                        _ADCON1 009F                                          i1l1170 04BD  
                                        i1l1164 04B6                                          i1l1172 040E  
                                        i1l1166 04B6                                          i1l1168 04BA  
                                        i1l1614 0549                                          i1l1616 054E  
                                        i1l1570 053B                                          i1l1618 0553  
                                        i1l1572 053D                                          i1l1574 053F  
                                        i1l1566 0533                                          i1l1576 0540  
                                        i1l1568 0539                                          i1l1578 0542  
                                  ?_reset_clk_1 0071                                    ?_reset_clk_2 0071  
                                  ?_reset_clk_3 0071                                    ?_reset_clk_4 0071  
                                    _Timer0_isr 040E                                      _Timer1_isr 0533  
                              __end_of_button_A 0417                                __end_of_button_B 0430  
                                  __pdataCOMMON 007A                                          saved_w 007E  
                                _ms_timer_reset 055F                         __end_of__initialization 07FC  
                                __pcstackCOMMON 0071                                    __pidataBANK0 04FB  
                       __end_of_set_row_pattern 04AE                __end_of_display_multiplexer_task 07D8  
                          ms_timer_init@ret_val 0075                           __end_of_PORTB_int_isr 04BF  
                                _OPTION_REGbits 0081                          __end_of_ms_timer_reset 0576  
                                    __pbssBANK0 0020                              _reset_reset_matrix 044C  
                                    __pmaintext 05F6                                     ?_Timer0_isr 0071  
                                   ?_Timer1_isr 0071                             ?_reset_reset_matrix 0071  
                                    __pintentry 0004                                   ?_ms_timer_get 0073  
                                    _btn_A_flag 0038                                      _btn_B_flag 0037  
                            _pulse_timer_handle 007A                            ??_reset_reset_matrix 0074  
                      __end_of_set_reset_matrix 0476                                 ?_ms_timer_reset 0071  
                             ?_clear_PORTA_pins 0071                               ?_clear_PORTC_pins 0071  
                             ?_clear_PORTE_pins 0071                              ??_clear_PORTA_pins 0073  
                            ??_clear_PORTC_pins 0073                                       ?_button_A 0071  
                                     ?_button_B 0071                              ??_clear_PORTE_pins 0073  
                                ??_ms_timer_get 0077                                   ?_PORTA_config 0071  
                                    _load_count 0051                                   ?_PORTB_config 0071  
                              ?_set_row_pattern 0071                                   ?_PORTC_config 0071  
                                 ?_PORTD_config 0071                                   ?_PORTE_config 0071  
                              ??_set_PORTA_pins 0073                                ??_set_PORTC_pins 0073  
                                       __ptext1 05B7                                         __ptext2 065E  
                                       __ptext3 04A6                                         __ptext4 0423  
                                       __ptext5 046F                                         __ptext6 0468  
                                       __ptext7 049E                                         __ptext8 0461  
                                       __ptext9 0496                                ??_set_PORTD_pins 0073  
                                       _k_array 0053                                ??_set_PORTE_pins 0073  
                                    _read_value 0039                                       _T1CONbits 0010  
                           _timer_increment_flg 0036                                         clrloop0 04AF  
                          end_of_initialization 07FC                               __end_of_set_clk_1 045A  
                             __end_of_set_clk_2 0461                               __end_of_set_clk_3 0468  
                             __end_of_set_clk_4 046F                      ms_timer_reset@timer_handle 0075  
                                    ??_button_A 0073                                      ??_button_B 0073  
                     ?_display_multiplexer_task 0071                         set_PORTD_pins@bit_field 0073  
                                ??_PORTA_config 0073                                  ??_PORTB_config 0073  
                                ??_PORTC_config 0073                                  ??_PORTD_config 0073  
                                ??_PORTE_config 0073                                       _PORTAbits 0005  
                                     _PORTBbits 0006                                       _TRISAbits 0085  
                                     _TRISBbits 0086                                       _TRISCbits 0087  
                                     _TRISDbits 0088                                       _TRISEbits 0089  
  display_multiplexer_set_red_array@data_buffer 0073                                 _timer_cnt_array 0020  
                                 __pidataCOMMON 0410                             start_initialization 07D8  
                                   __end_of_isr 055F                            __end_of_ms_timer_get 0592  
                                  ??_Timer0_isr 0071                                    ??_Timer1_isr 0071  
                                 _Timer1_config 050D                                      init_fetch0 0520  
                                   __pdataBANK0 0051                                   _ms_timer_init 0592  
                                 _ms_timer_task 05B7                                ??_ms_timer_reset 0073  
                                   __pbssCOMMON 0078                                       ___latbits 0002  
                                 __pcstackBANK0 0065                            __end_of_PORTA_config 04DF  
                            __end_of_Timer0_isr 0410                              __end_of_Timer1_isr 0549  
                          __end_of_PORTB_config 04ED                               ?_set_reset_matrix 0071  
                          __end_of_PORTC_config 04C8                            __end_of_PORTD_config 04FB  
                          __end_of_PORTE_config 04D1                              ??_set_reset_matrix 0074  
                                   _blank_array 0041                                       __pnvBANK0 0063  
                                ?_Timer1_config 0071                                  ?_ms_timer_init 0071  
                                ?_ms_timer_task 0071                        ms_timer_get@timer_handle 0065  
                                     _red_index 003D                               interrupt_function 0004  
                              _horizontal_index 0079                                       clear_ram0 04AE  
                                 ??_reset_clk_1 0074                                   ??_reset_clk_2 0074  
                                 ??_reset_clk_3 0074                                   ??_reset_clk_4 0074  
                                      _PIE1bits 008C                                       _set_clk_1 0453  
                                     _set_clk_2 045A                                       _set_clk_3 0461  
                                     _set_clk_4 0468                                        _PIR1bits 000C  
                        set_row_pattern@pattern 0074                                   _mltplxr_state 0040  
                                 _PORTB_int_isr 04B6                                     _global_time 0034  
                            _green_array_1_next 0063                                     _green_index 003C  
                               ??_Timer1_config 0073                                      ?_set_clk_1 0071  
                                    ?_set_clk_2 0071                                      ?_set_clk_3 0071  
                                    ?_set_clk_4 0071                             __end_of_reset_clk_1 0437  
                           __end_of_reset_clk_2 043E                             __end_of_reset_clk_3 0445  
                           __end_of_reset_clk_4 044C                                    _ms_timer_get 0576  
                               ??_ms_timer_init 0073                                 ??_ms_timer_task 0073  
                                ?_PORTB_int_isr 0071                         set_PORTA_pins@bit_field 0073  
                                      __ptext10 045A                                        __ptext11 0453  
                                      __ptext20 0476                                        __ptext12 048E  
                                      __ptext21 055F                                        __ptext13 044C  
                                      __ptext30 04ED                                        __ptext22 0592  
                                      __ptext14 0445                                        __ptext31 04BF  
                                      __ptext23 0576                                        __ptext15 0486  
                                      __ptext32 04DF                                        __ptext24 041D  
                                      __ptext16 043E                                        __ptext33 04D1  
                                      __ptext25 0417                                        __ptext17 047E  
                                      __ptext34 0549                                        __ptext26 0429  
                                      __ptext18 0437                                        __ptext35 0533  
                                      __ptext27 0412                                        __ptext19 0430  
                                      __ptext36 040E                                        __ptext28 050D  
                                      __ptext37 04B6                                        __ptext29 04C8  
                     clear_PORTA_pins@bit_field 0073                        _display_multiplexer_task 065E  
                                   _red_array_1 003F                                        _button_A 0412  
                                      _button_B 0429     __end_of_display_multiplexer_set_green_array 041D  
         ??_display_multiplexer_set_green_array 0073            ?_display_multiplexer_set_green_array 0071  
           _display_multiplexer_set_green_array 0417                                _clear_PORTA_pins 047E  
                              _reset_pulse_flag 003A                                _clear_PORTC_pins 0486  
                              _clear_PORTE_pins 0476                                    _PORTA_config 04D1  
                                  _PORTB_config 04DF                                    _PORTC_config 04BF  
                           _frame_complete_flag 003B                                    _PORTD_config 04ED  
                                  _PORTE_config 04C8                                      _INTCONbits 000B  
                                      init_ram0 0524                                        intlevel1 0000  
                             ??_set_row_pattern 0074                         set_PORTC_pins@bit_field 0073  
                     clear_PORTC_pins@bit_field 0073                                     _reset_clk_1 0430  
                                   _reset_clk_2 0437                                     _reset_clk_3 043E  
                                   _reset_clk_4 0445                                     ??_set_clk_1 0074  
                                   ??_set_clk_2 0074                                     ??_set_clk_3 0074  
                                   ??_set_clk_4 0074       __end_of_display_multiplexer_set_red_array 0423  
           ??_display_multiplexer_set_red_array 0073              ?_display_multiplexer_set_red_array 0071  
             _display_multiplexer_set_red_array 041D                                    _timer_handle 007B  
                               ??_PORTB_int_isr 0071                                      _OPTION_REG 0081  
                       set_PORTE_pins@bit_field 0073  
